
SimpleGraphics.elf:     file format elf32-littlearm

Sections:
Idx Name          Size      VMA       LMA       File off  Algn
  0 .isr_vector   000001c8  08000000  08000000  00010000  2**0
                  CONTENTS, ALLOC, LOAD, READONLY, DATA
  1 .text         000038f8  080001c8  080001c8  000101c8  2**2
                  CONTENTS, ALLOC, LOAD, READONLY, CODE
  2 .rodata       00000018  08003ac0  08003ac0  00013ac0  2**2
                  CONTENTS, ALLOC, LOAD, READONLY, DATA
  3 .ARM.extab    00000000  08003ad8  08003ad8  0002000c  2**0
                  CONTENTS
  4 .ARM          00000008  08003ad8  08003ad8  00013ad8  2**2
                  CONTENTS, ALLOC, LOAD, READONLY, DATA
  5 .preinit_array 00000000  08003ae0  08003ae0  0002000c  2**0
                  CONTENTS, ALLOC, LOAD, DATA
  6 .init_array   00000004  08003ae0  08003ae0  00013ae0  2**2
                  CONTENTS, ALLOC, LOAD, DATA
  7 .fini_array   00000004  08003ae4  08003ae4  00013ae4  2**2
                  CONTENTS, ALLOC, LOAD, DATA
  8 .data         0000000c  20000000  08003ae8  00020000  2**2
                  CONTENTS, ALLOC, LOAD, DATA
  9 .bss          0003fea4  2000000c  08003af4  0002000c  2**2
                  ALLOC
 10 ._user_heap_stack 00000600  2003feb0  08003af4  0002feb0  2**0
                  ALLOC
 11 .ARM.attributes 00000030  00000000  00000000  0002000c  2**0
                  CONTENTS, READONLY
 12 .debug_info   0001dfdc  00000000  00000000  0002003c  2**0
                  CONTENTS, READONLY, DEBUGGING
 13 .debug_abbrev 000033d1  00000000  00000000  0003e018  2**0
                  CONTENTS, READONLY, DEBUGGING
 14 .debug_loc    00013414  00000000  00000000  000413e9  2**0
                  CONTENTS, READONLY, DEBUGGING
 15 .debug_aranges 00001578  00000000  00000000  00054800  2**3
                  CONTENTS, READONLY, DEBUGGING
 16 .debug_ranges 00001488  00000000  00000000  00055d78  2**3
                  CONTENTS, READONLY, DEBUGGING
 17 .debug_macro  000285d0  00000000  00000000  00057200  2**0
                  CONTENTS, READONLY, DEBUGGING
 18 .debug_line   00012ced  00000000  00000000  0007f7d0  2**0
                  CONTENTS, READONLY, DEBUGGING
 19 .debug_str    000fc2de  00000000  00000000  000924bd  2**0
                  CONTENTS, READONLY, DEBUGGING
 20 .comment      0000007b  00000000  00000000  0018e79b  2**0
                  CONTENTS, READONLY
 21 .debug_frame  00003dd8  00000000  00000000  0018e818  2**2
                  CONTENTS, READONLY, DEBUGGING

Disassembly of section .text:

080001c8 <__do_global_dtors_aux>:
 80001c8:	b510      	push	{r4, lr}
 80001ca:	4c05      	ldr	r4, [pc, #20]	; (80001e0 <__do_global_dtors_aux+0x18>)
 80001cc:	7823      	ldrb	r3, [r4, #0]
 80001ce:	b933      	cbnz	r3, 80001de <__do_global_dtors_aux+0x16>
 80001d0:	4b04      	ldr	r3, [pc, #16]	; (80001e4 <__do_global_dtors_aux+0x1c>)
 80001d2:	b113      	cbz	r3, 80001da <__do_global_dtors_aux+0x12>
 80001d4:	4804      	ldr	r0, [pc, #16]	; (80001e8 <__do_global_dtors_aux+0x20>)
 80001d6:	f3af 8000 	nop.w
 80001da:	2301      	movs	r3, #1
 80001dc:	7023      	strb	r3, [r4, #0]
 80001de:	bd10      	pop	{r4, pc}
 80001e0:	2000000c 	.word	0x2000000c
 80001e4:	00000000 	.word	0x00000000
 80001e8:	08003aa8 	.word	0x08003aa8

080001ec <frame_dummy>:
 80001ec:	b508      	push	{r3, lr}
 80001ee:	4b03      	ldr	r3, [pc, #12]	; (80001fc <frame_dummy+0x10>)
 80001f0:	b11b      	cbz	r3, 80001fa <frame_dummy+0xe>
 80001f2:	4903      	ldr	r1, [pc, #12]	; (8000200 <frame_dummy+0x14>)
 80001f4:	4803      	ldr	r0, [pc, #12]	; (8000204 <frame_dummy+0x18>)
 80001f6:	f3af 8000 	nop.w
 80001fa:	bd08      	pop	{r3, pc}
 80001fc:	00000000 	.word	0x00000000
 8000200:	20000010 	.word	0x20000010
 8000204:	08003aa8 	.word	0x08003aa8

08000208 <__aeabi_uldivmod>:
 8000208:	b953      	cbnz	r3, 8000220 <__aeabi_uldivmod+0x18>
 800020a:	b94a      	cbnz	r2, 8000220 <__aeabi_uldivmod+0x18>
 800020c:	2900      	cmp	r1, #0
 800020e:	bf08      	it	eq
 8000210:	2800      	cmpeq	r0, #0
 8000212:	bf1c      	itt	ne
 8000214:	f04f 31ff 	movne.w	r1, #4294967295
 8000218:	f04f 30ff 	movne.w	r0, #4294967295
 800021c:	f000 b972 	b.w	8000504 <__aeabi_idiv0>
 8000220:	f1ad 0c08 	sub.w	ip, sp, #8
 8000224:	e96d ce04 	strd	ip, lr, [sp, #-16]!
 8000228:	f000 f806 	bl	8000238 <__udivmoddi4>
 800022c:	f8dd e004 	ldr.w	lr, [sp, #4]
 8000230:	e9dd 2302 	ldrd	r2, r3, [sp, #8]
 8000234:	b004      	add	sp, #16
 8000236:	4770      	bx	lr

08000238 <__udivmoddi4>:
 8000238:	e92d 47f0 	stmdb	sp!, {r4, r5, r6, r7, r8, r9, sl, lr}
 800023c:	9e08      	ldr	r6, [sp, #32]
 800023e:	4604      	mov	r4, r0
 8000240:	4688      	mov	r8, r1
 8000242:	2b00      	cmp	r3, #0
 8000244:	d14b      	bne.n	80002de <__udivmoddi4+0xa6>
 8000246:	428a      	cmp	r2, r1
 8000248:	4615      	mov	r5, r2
 800024a:	d967      	bls.n	800031c <__udivmoddi4+0xe4>
 800024c:	fab2 f282 	clz	r2, r2
 8000250:	b14a      	cbz	r2, 8000266 <__udivmoddi4+0x2e>
 8000252:	f1c2 0720 	rsb	r7, r2, #32
 8000256:	fa01 f302 	lsl.w	r3, r1, r2
 800025a:	fa20 f707 	lsr.w	r7, r0, r7
 800025e:	4095      	lsls	r5, r2
 8000260:	ea47 0803 	orr.w	r8, r7, r3
 8000264:	4094      	lsls	r4, r2
 8000266:	ea4f 4e15 	mov.w	lr, r5, lsr #16
 800026a:	0c23      	lsrs	r3, r4, #16
 800026c:	fbb8 f7fe 	udiv	r7, r8, lr
 8000270:	fa1f fc85 	uxth.w	ip, r5
 8000274:	fb0e 8817 	mls	r8, lr, r7, r8
 8000278:	ea43 4308 	orr.w	r3, r3, r8, lsl #16
 800027c:	fb07 f10c 	mul.w	r1, r7, ip
 8000280:	4299      	cmp	r1, r3
 8000282:	d909      	bls.n	8000298 <__udivmoddi4+0x60>
 8000284:	18eb      	adds	r3, r5, r3
 8000286:	f107 30ff 	add.w	r0, r7, #4294967295
 800028a:	f080 811b 	bcs.w	80004c4 <__udivmoddi4+0x28c>
 800028e:	4299      	cmp	r1, r3
 8000290:	f240 8118 	bls.w	80004c4 <__udivmoddi4+0x28c>
 8000294:	3f02      	subs	r7, #2
 8000296:	442b      	add	r3, r5
 8000298:	1a5b      	subs	r3, r3, r1
 800029a:	b2a4      	uxth	r4, r4
 800029c:	fbb3 f0fe 	udiv	r0, r3, lr
 80002a0:	fb0e 3310 	mls	r3, lr, r0, r3
 80002a4:	ea44 4403 	orr.w	r4, r4, r3, lsl #16
 80002a8:	fb00 fc0c 	mul.w	ip, r0, ip
 80002ac:	45a4      	cmp	ip, r4
 80002ae:	d909      	bls.n	80002c4 <__udivmoddi4+0x8c>
 80002b0:	192c      	adds	r4, r5, r4
 80002b2:	f100 33ff 	add.w	r3, r0, #4294967295
 80002b6:	f080 8107 	bcs.w	80004c8 <__udivmoddi4+0x290>
 80002ba:	45a4      	cmp	ip, r4
 80002bc:	f240 8104 	bls.w	80004c8 <__udivmoddi4+0x290>
 80002c0:	3802      	subs	r0, #2
 80002c2:	442c      	add	r4, r5
 80002c4:	ea40 4007 	orr.w	r0, r0, r7, lsl #16
 80002c8:	eba4 040c 	sub.w	r4, r4, ip
 80002cc:	2700      	movs	r7, #0
 80002ce:	b11e      	cbz	r6, 80002d8 <__udivmoddi4+0xa0>
 80002d0:	40d4      	lsrs	r4, r2
 80002d2:	2300      	movs	r3, #0
 80002d4:	e9c6 4300 	strd	r4, r3, [r6]
 80002d8:	4639      	mov	r1, r7
 80002da:	e8bd 87f0 	ldmia.w	sp!, {r4, r5, r6, r7, r8, r9, sl, pc}
 80002de:	428b      	cmp	r3, r1
 80002e0:	d909      	bls.n	80002f6 <__udivmoddi4+0xbe>
 80002e2:	2e00      	cmp	r6, #0
 80002e4:	f000 80eb 	beq.w	80004be <__udivmoddi4+0x286>
 80002e8:	2700      	movs	r7, #0
 80002ea:	e9c6 0100 	strd	r0, r1, [r6]
 80002ee:	4638      	mov	r0, r7
 80002f0:	4639      	mov	r1, r7
 80002f2:	e8bd 87f0 	ldmia.w	sp!, {r4, r5, r6, r7, r8, r9, sl, pc}
 80002f6:	fab3 f783 	clz	r7, r3
 80002fa:	2f00      	cmp	r7, #0
 80002fc:	d147      	bne.n	800038e <__udivmoddi4+0x156>
 80002fe:	428b      	cmp	r3, r1
 8000300:	d302      	bcc.n	8000308 <__udivmoddi4+0xd0>
 8000302:	4282      	cmp	r2, r0
 8000304:	f200 80fa 	bhi.w	80004fc <__udivmoddi4+0x2c4>
 8000308:	1a84      	subs	r4, r0, r2
 800030a:	eb61 0303 	sbc.w	r3, r1, r3
 800030e:	2001      	movs	r0, #1
 8000310:	4698      	mov	r8, r3
 8000312:	2e00      	cmp	r6, #0
 8000314:	d0e0      	beq.n	80002d8 <__udivmoddi4+0xa0>
 8000316:	e9c6 4800 	strd	r4, r8, [r6]
 800031a:	e7dd      	b.n	80002d8 <__udivmoddi4+0xa0>
 800031c:	b902      	cbnz	r2, 8000320 <__udivmoddi4+0xe8>
 800031e:	deff      	udf	#255	; 0xff
 8000320:	fab2 f282 	clz	r2, r2
 8000324:	2a00      	cmp	r2, #0
 8000326:	f040 808f 	bne.w	8000448 <__udivmoddi4+0x210>
 800032a:	1b49      	subs	r1, r1, r5
 800032c:	ea4f 4e15 	mov.w	lr, r5, lsr #16
 8000330:	fa1f f885 	uxth.w	r8, r5
 8000334:	2701      	movs	r7, #1
 8000336:	fbb1 fcfe 	udiv	ip, r1, lr
 800033a:	0c23      	lsrs	r3, r4, #16
 800033c:	fb0e 111c 	mls	r1, lr, ip, r1
 8000340:	ea43 4301 	orr.w	r3, r3, r1, lsl #16
 8000344:	fb08 f10c 	mul.w	r1, r8, ip
 8000348:	4299      	cmp	r1, r3
 800034a:	d907      	bls.n	800035c <__udivmoddi4+0x124>
 800034c:	18eb      	adds	r3, r5, r3
 800034e:	f10c 30ff 	add.w	r0, ip, #4294967295
 8000352:	d202      	bcs.n	800035a <__udivmoddi4+0x122>
 8000354:	4299      	cmp	r1, r3
 8000356:	f200 80cd 	bhi.w	80004f4 <__udivmoddi4+0x2bc>
 800035a:	4684      	mov	ip, r0
 800035c:	1a59      	subs	r1, r3, r1
 800035e:	b2a3      	uxth	r3, r4
 8000360:	fbb1 f0fe 	udiv	r0, r1, lr
 8000364:	fb0e 1410 	mls	r4, lr, r0, r1
 8000368:	ea43 4404 	orr.w	r4, r3, r4, lsl #16
 800036c:	fb08 f800 	mul.w	r8, r8, r0
 8000370:	45a0      	cmp	r8, r4
 8000372:	d907      	bls.n	8000384 <__udivmoddi4+0x14c>
 8000374:	192c      	adds	r4, r5, r4
 8000376:	f100 33ff 	add.w	r3, r0, #4294967295
 800037a:	d202      	bcs.n	8000382 <__udivmoddi4+0x14a>
 800037c:	45a0      	cmp	r8, r4
 800037e:	f200 80b6 	bhi.w	80004ee <__udivmoddi4+0x2b6>
 8000382:	4618      	mov	r0, r3
 8000384:	eba4 0408 	sub.w	r4, r4, r8
 8000388:	ea40 400c 	orr.w	r0, r0, ip, lsl #16
 800038c:	e79f      	b.n	80002ce <__udivmoddi4+0x96>
 800038e:	f1c7 0c20 	rsb	ip, r7, #32
 8000392:	40bb      	lsls	r3, r7
 8000394:	fa22 fe0c 	lsr.w	lr, r2, ip
 8000398:	ea4e 0e03 	orr.w	lr, lr, r3
 800039c:	fa01 f407 	lsl.w	r4, r1, r7
 80003a0:	fa20 f50c 	lsr.w	r5, r0, ip
 80003a4:	fa21 f30c 	lsr.w	r3, r1, ip
 80003a8:	ea4f 481e 	mov.w	r8, lr, lsr #16
 80003ac:	4325      	orrs	r5, r4
 80003ae:	fbb3 f9f8 	udiv	r9, r3, r8
 80003b2:	0c2c      	lsrs	r4, r5, #16
 80003b4:	fb08 3319 	mls	r3, r8, r9, r3
 80003b8:	fa1f fa8e 	uxth.w	sl, lr
 80003bc:	ea44 4303 	orr.w	r3, r4, r3, lsl #16
 80003c0:	fb09 f40a 	mul.w	r4, r9, sl
 80003c4:	429c      	cmp	r4, r3
 80003c6:	fa02 f207 	lsl.w	r2, r2, r7
 80003ca:	fa00 f107 	lsl.w	r1, r0, r7
 80003ce:	d90b      	bls.n	80003e8 <__udivmoddi4+0x1b0>
 80003d0:	eb1e 0303 	adds.w	r3, lr, r3
 80003d4:	f109 30ff 	add.w	r0, r9, #4294967295
 80003d8:	f080 8087 	bcs.w	80004ea <__udivmoddi4+0x2b2>
 80003dc:	429c      	cmp	r4, r3
 80003de:	f240 8084 	bls.w	80004ea <__udivmoddi4+0x2b2>
 80003e2:	f1a9 0902 	sub.w	r9, r9, #2
 80003e6:	4473      	add	r3, lr
 80003e8:	1b1b      	subs	r3, r3, r4
 80003ea:	b2ad      	uxth	r5, r5
 80003ec:	fbb3 f0f8 	udiv	r0, r3, r8
 80003f0:	fb08 3310 	mls	r3, r8, r0, r3
 80003f4:	ea45 4403 	orr.w	r4, r5, r3, lsl #16
 80003f8:	fb00 fa0a 	mul.w	sl, r0, sl
 80003fc:	45a2      	cmp	sl, r4
 80003fe:	d908      	bls.n	8000412 <__udivmoddi4+0x1da>
 8000400:	eb1e 0404 	adds.w	r4, lr, r4
 8000404:	f100 33ff 	add.w	r3, r0, #4294967295
 8000408:	d26b      	bcs.n	80004e2 <__udivmoddi4+0x2aa>
 800040a:	45a2      	cmp	sl, r4
 800040c:	d969      	bls.n	80004e2 <__udivmoddi4+0x2aa>
 800040e:	3802      	subs	r0, #2
 8000410:	4474      	add	r4, lr
 8000412:	ea40 4009 	orr.w	r0, r0, r9, lsl #16
 8000416:	fba0 8902 	umull	r8, r9, r0, r2
 800041a:	eba4 040a 	sub.w	r4, r4, sl
 800041e:	454c      	cmp	r4, r9
 8000420:	46c2      	mov	sl, r8
 8000422:	464b      	mov	r3, r9
 8000424:	d354      	bcc.n	80004d0 <__udivmoddi4+0x298>
 8000426:	d051      	beq.n	80004cc <__udivmoddi4+0x294>
 8000428:	2e00      	cmp	r6, #0
 800042a:	d069      	beq.n	8000500 <__udivmoddi4+0x2c8>
 800042c:	ebb1 050a 	subs.w	r5, r1, sl
 8000430:	eb64 0403 	sbc.w	r4, r4, r3
 8000434:	fa04 fc0c 	lsl.w	ip, r4, ip
 8000438:	40fd      	lsrs	r5, r7
 800043a:	40fc      	lsrs	r4, r7
 800043c:	ea4c 0505 	orr.w	r5, ip, r5
 8000440:	e9c6 5400 	strd	r5, r4, [r6]
 8000444:	2700      	movs	r7, #0
 8000446:	e747      	b.n	80002d8 <__udivmoddi4+0xa0>
 8000448:	f1c2 0320 	rsb	r3, r2, #32
 800044c:	fa20 f703 	lsr.w	r7, r0, r3
 8000450:	4095      	lsls	r5, r2
 8000452:	fa01 f002 	lsl.w	r0, r1, r2
 8000456:	fa21 f303 	lsr.w	r3, r1, r3
 800045a:	ea4f 4e15 	mov.w	lr, r5, lsr #16
 800045e:	4338      	orrs	r0, r7
 8000460:	0c01      	lsrs	r1, r0, #16
 8000462:	fbb3 f7fe 	udiv	r7, r3, lr
 8000466:	fa1f f885 	uxth.w	r8, r5
 800046a:	fb0e 3317 	mls	r3, lr, r7, r3
 800046e:	ea41 4103 	orr.w	r1, r1, r3, lsl #16
 8000472:	fb07 f308 	mul.w	r3, r7, r8
 8000476:	428b      	cmp	r3, r1
 8000478:	fa04 f402 	lsl.w	r4, r4, r2
 800047c:	d907      	bls.n	800048e <__udivmoddi4+0x256>
 800047e:	1869      	adds	r1, r5, r1
 8000480:	f107 3cff 	add.w	ip, r7, #4294967295
 8000484:	d22f      	bcs.n	80004e6 <__udivmoddi4+0x2ae>
 8000486:	428b      	cmp	r3, r1
 8000488:	d92d      	bls.n	80004e6 <__udivmoddi4+0x2ae>
 800048a:	3f02      	subs	r7, #2
 800048c:	4429      	add	r1, r5
 800048e:	1acb      	subs	r3, r1, r3
 8000490:	b281      	uxth	r1, r0
 8000492:	fbb3 f0fe 	udiv	r0, r3, lr
 8000496:	fb0e 3310 	mls	r3, lr, r0, r3
 800049a:	ea41 4103 	orr.w	r1, r1, r3, lsl #16
 800049e:	fb00 f308 	mul.w	r3, r0, r8
 80004a2:	428b      	cmp	r3, r1
 80004a4:	d907      	bls.n	80004b6 <__udivmoddi4+0x27e>
 80004a6:	1869      	adds	r1, r5, r1
 80004a8:	f100 3cff 	add.w	ip, r0, #4294967295
 80004ac:	d217      	bcs.n	80004de <__udivmoddi4+0x2a6>
 80004ae:	428b      	cmp	r3, r1
 80004b0:	d915      	bls.n	80004de <__udivmoddi4+0x2a6>
 80004b2:	3802      	subs	r0, #2
 80004b4:	4429      	add	r1, r5
 80004b6:	1ac9      	subs	r1, r1, r3
 80004b8:	ea40 4707 	orr.w	r7, r0, r7, lsl #16
 80004bc:	e73b      	b.n	8000336 <__udivmoddi4+0xfe>
 80004be:	4637      	mov	r7, r6
 80004c0:	4630      	mov	r0, r6
 80004c2:	e709      	b.n	80002d8 <__udivmoddi4+0xa0>
 80004c4:	4607      	mov	r7, r0
 80004c6:	e6e7      	b.n	8000298 <__udivmoddi4+0x60>
 80004c8:	4618      	mov	r0, r3
 80004ca:	e6fb      	b.n	80002c4 <__udivmoddi4+0x8c>
 80004cc:	4541      	cmp	r1, r8
 80004ce:	d2ab      	bcs.n	8000428 <__udivmoddi4+0x1f0>
 80004d0:	ebb8 0a02 	subs.w	sl, r8, r2
 80004d4:	eb69 020e 	sbc.w	r2, r9, lr
 80004d8:	3801      	subs	r0, #1
 80004da:	4613      	mov	r3, r2
 80004dc:	e7a4      	b.n	8000428 <__udivmoddi4+0x1f0>
 80004de:	4660      	mov	r0, ip
 80004e0:	e7e9      	b.n	80004b6 <__udivmoddi4+0x27e>
 80004e2:	4618      	mov	r0, r3
 80004e4:	e795      	b.n	8000412 <__udivmoddi4+0x1da>
 80004e6:	4667      	mov	r7, ip
 80004e8:	e7d1      	b.n	800048e <__udivmoddi4+0x256>
 80004ea:	4681      	mov	r9, r0
 80004ec:	e77c      	b.n	80003e8 <__udivmoddi4+0x1b0>
 80004ee:	3802      	subs	r0, #2
 80004f0:	442c      	add	r4, r5
 80004f2:	e747      	b.n	8000384 <__udivmoddi4+0x14c>
 80004f4:	f1ac 0c02 	sub.w	ip, ip, #2
 80004f8:	442b      	add	r3, r5
 80004fa:	e72f      	b.n	800035c <__udivmoddi4+0x124>
 80004fc:	4638      	mov	r0, r7
 80004fe:	e708      	b.n	8000312 <__udivmoddi4+0xda>
 8000500:	4637      	mov	r7, r6
 8000502:	e6e9      	b.n	80002d8 <__udivmoddi4+0xa0>

08000504 <__aeabi_idiv0>:
 8000504:	4770      	bx	lr
 8000506:	bf00      	nop

08000508 <Init_Graphics_System>:

void Init_Graphics_System(uint32 H, uint32 W, uint32 LCD_RAM_START_ADDRESS, uint8 Layers, uint8 ColorType) //Инициализация драйвера дисплея, графического ускорителя и т.п.
{
	//LTDC_LayerCfgTypeDef pLayerCfg = {0};
	//LTDC_LayerCfgTypeDef pLayerCfg1 = {0};
	Height = H;
 8000508:	4b03      	ldr	r3, [pc, #12]	; (8000518 <Init_Graphics_System+0x10>)
 800050a:	6018      	str	r0, [r3, #0]
    Width = W;
 800050c:	4b03      	ldr	r3, [pc, #12]	; (800051c <Init_Graphics_System+0x14>)
 800050e:	6019      	str	r1, [r3, #0]

    LCD_FRAME_BUFFER0 = LCD_RAM_START_ADDRESS;
 8000510:	4b03      	ldr	r3, [pc, #12]	; (8000520 <Init_Graphics_System+0x18>)
 8000512:	601a      	str	r2, [r3, #0]
    if (HAL_DMA2D_ConfigLayer(&hdma2d, 1) != HAL_OK)
    {

    } */

}
 8000514:	4770      	bx	lr
 8000516:	bf00      	nop
 8000518:	20000028 	.word	0x20000028
 800051c:	20000030 	.word	0x20000030
 8000520:	2000002c 	.word	0x2000002c

08000524 <Fill_all>:

void Fill_all(uint32 Color) //Заливка всего дисплея цветом
{
	for(int i=0; i<480*272; i++)
 8000524:	2300      	movs	r3, #0
 8000526:	e005      	b.n	8000534 <Fill_all+0x10>
	{
	  *(__IO uint16*) (LCD_FRAME_BUFFER0 + (i*2)) = Color;
 8000528:	4a04      	ldr	r2, [pc, #16]	; (800053c <Fill_all+0x18>)
 800052a:	6812      	ldr	r2, [r2, #0]
 800052c:	b281      	uxth	r1, r0
 800052e:	f822 1013 	strh.w	r1, [r2, r3, lsl #1]
	for(int i=0; i<480*272; i++)
 8000532:	3301      	adds	r3, #1
 8000534:	f5b3 3fff 	cmp.w	r3, #130560	; 0x1fe00
 8000538:	dbf6      	blt.n	8000528 <Fill_all+0x4>
	}
}
 800053a:	4770      	bx	lr
 800053c:	2000002c 	.word	0x2000002c

08000540 <Fill_rectangle>:

void Fill_rectangle(uint32 Color, int32 StartX, int32 StopX, int32 StartY, int32 StopY) //Заливка прямоугольной формы
{
 8000540:	b4f0      	push	{r4, r5, r6, r7}
 8000542:	f8dd c010 	ldr.w	ip, [sp, #16]
	StartX--;
 8000546:	3901      	subs	r1, #1
	StartY--;
 8000548:	3b01      	subs	r3, #1
    	   //HAL_Delay(5);
    	   HAL_DMA2D_PollForTransfer(&hdma2d, TransferDelay);
       }
    } */

	for(uint32 y = StartY; y < StopY; y++)
 800054a:	e00c      	b.n	8000566 <Fill_rectangle+0x26>
	{
		for(uint32 x = StartX; x < StopX; x++)
		{
			*(__IO uint16*) (LCD_FRAME_BUFFER0 + (2*(y*Width + x))) = Color;
 800054c:	4d09      	ldr	r5, [pc, #36]	; (8000574 <Fill_rectangle+0x34>)
 800054e:	682d      	ldr	r5, [r5, #0]
 8000550:	fb05 4503 	mla	r5, r5, r3, r4
 8000554:	4e08      	ldr	r6, [pc, #32]	; (8000578 <Fill_rectangle+0x38>)
 8000556:	6836      	ldr	r6, [r6, #0]
 8000558:	b287      	uxth	r7, r0
 800055a:	f826 7015 	strh.w	r7, [r6, r5, lsl #1]
		for(uint32 x = StartX; x < StopX; x++)
 800055e:	3401      	adds	r4, #1
 8000560:	42a2      	cmp	r2, r4
 8000562:	d8f3      	bhi.n	800054c <Fill_rectangle+0xc>
	for(uint32 y = StartY; y < StopY; y++)
 8000564:	3301      	adds	r3, #1
 8000566:	459c      	cmp	ip, r3
 8000568:	d901      	bls.n	800056e <Fill_rectangle+0x2e>
		for(uint32 x = StartX; x < StopX; x++)
 800056a:	460c      	mov	r4, r1
 800056c:	e7f8      	b.n	8000560 <Fill_rectangle+0x20>
		}
	}
}
 800056e:	bcf0      	pop	{r4, r5, r6, r7}
 8000570:	4770      	bx	lr
 8000572:	bf00      	nop
 8000574:	20000030 	.word	0x20000030
 8000578:	2000002c 	.word	0x2000002c

0800057c <Get565Color>:
{
	uint8 FontH = calibri[1];
	return FontH;
}
uint16 Get565Color(uint32 Color) //Возвращает значение цвета в формате пикселя 565(5 бит - красный цвет, 6 - зеленый, 5 - синий)
{
 800057c:	b410      	push	{r4}
   uint8 R, G, B;
   R = (Color >> 16) & 0xff;
   G = (Color >> 8) & 0xff;
   B = Color & 0xff;

   R = 31 * R / 255;
 800057e:	f3c0 4307 	ubfx	r3, r0, #16, #8
 8000582:	ebc3 1343 	rsb	r3, r3, r3, lsl #5
 8000586:	4a13      	ldr	r2, [pc, #76]	; (80005d4 <Get565Color+0x58>)
 8000588:	fb82 4103 	smull	r4, r1, r2, r3
 800058c:	4419      	add	r1, r3
 800058e:	17db      	asrs	r3, r3, #31
 8000590:	ebc3 11e1 	rsb	r1, r3, r1, asr #7
   G = 63 * G / 255;
 8000594:	f3c0 2307 	ubfx	r3, r0, #8, #8
 8000598:	ebc3 1383 	rsb	r3, r3, r3, lsl #6
 800059c:	fb82 c403 	smull	ip, r4, r2, r3
 80005a0:	441c      	add	r4, r3
 80005a2:	17db      	asrs	r3, r3, #31
 80005a4:	ebc3 13e4 	rsb	r3, r3, r4, asr #7
   B = 31 * B / 255;
 80005a8:	b2c0      	uxtb	r0, r0
 80005aa:	ebc0 1040 	rsb	r0, r0, r0, lsl #5
 80005ae:	fb82 4200 	smull	r4, r2, r2, r0
 80005b2:	4402      	add	r2, r0
 80005b4:	17c0      	asrs	r0, r0, #31
 80005b6:	ebc0 10e2 	rsb	r0, r0, r2, asr #7
 80005ba:	b2c2      	uxtb	r2, r0

   RezColor |= B;
   RezColor |= (G << 5);
 80005bc:	0158      	lsls	r0, r3, #5
 80005be:	f400 50ff 	and.w	r0, r0, #8160	; 0x1fe0
 80005c2:	4310      	orrs	r0, r2
   RezColor |= (R << 11);
 80005c4:	02c9      	lsls	r1, r1, #11
 80005c6:	f401 21ff 	and.w	r1, r1, #522240	; 0x7f800
 80005ca:	4308      	orrs	r0, r1

   return RezColor;
}
 80005cc:	b280      	uxth	r0, r0
 80005ce:	f85d 4b04 	ldr.w	r4, [sp], #4
 80005d2:	4770      	bx	lr
 80005d4:	80808081 	.word	0x80808081

080005d8 <Graphics_Init>:
	}
	return Error;
}

void Graphics_Init(DisplayConfig *dcf) //Инициализация самой бибиллиотеки а также инициализация графических устройств(дисплей, графические ускорители, тач-панели)
{
 80005d8:	b510      	push	{r4, lr}
 80005da:	b082      	sub	sp, #8
 80005dc:	4602      	mov	r2, r0
	DispHeight = dcf->Display_Height;
 80005de:	6840      	ldr	r0, [r0, #4]
 80005e0:	4b07      	ldr	r3, [pc, #28]	; (8000600 <Graphics_Init+0x28>)
 80005e2:	6018      	str	r0, [r3, #0]
	DispWidth = dcf->Display_Width;
 80005e4:	6891      	ldr	r1, [r2, #8]
 80005e6:	4b07      	ldr	r3, [pc, #28]	; (8000604 <Graphics_Init+0x2c>)
 80005e8:	6019      	str	r1, [r3, #0]
	ColorType = dcf->Color_Type;
 80005ea:	7b14      	ldrb	r4, [r2, #12]
 80005ec:	4b06      	ldr	r3, [pc, #24]	; (8000608 <Graphics_Init+0x30>)
 80005ee:	701c      	strb	r4, [r3, #0]
	Init_Graphics_System(dcf->Display_Height, dcf->Display_Width, dcf->Start_RAM_Address, dcf->Layers, dcf->Color_Type);
 80005f0:	7b53      	ldrb	r3, [r2, #13]
 80005f2:	6812      	ldr	r2, [r2, #0]
 80005f4:	9400      	str	r4, [sp, #0]
 80005f6:	f7ff ff87 	bl	8000508 <Init_Graphics_System>
}
 80005fa:	b002      	add	sp, #8
 80005fc:	bd10      	pop	{r4, pc}
 80005fe:	bf00      	nop
 8000600:	20000038 	.word	0x20000038
 8000604:	2000003c 	.word	0x2000003c
 8000608:	20000034 	.word	0x20000034

0800060c <Fill_Display>:
	      }
	  }
  }
}
void Fill_Display(uint32 Color) //Заливает весь дисплей определенным цветом
{
 800060c:	b510      	push	{r4, lr}
 800060e:	4604      	mov	r4, r0

	if(ColorType == Color565)
 8000610:	4b0c      	ldr	r3, [pc, #48]	; (8000644 <Fill_Display+0x38>)
 8000612:	781b      	ldrb	r3, [r3, #0]
 8000614:	b143      	cbz	r3, 8000628 <Fill_Display+0x1c>
	{ Fill_all(Get565Color(Color)); }

	if(ColorType == Color888)
 8000616:	4b0b      	ldr	r3, [pc, #44]	; (8000644 <Fill_Display+0x38>)
 8000618:	781b      	ldrb	r3, [r3, #0]
 800061a:	2b01      	cmp	r3, #1
 800061c:	d009      	beq.n	8000632 <Fill_Display+0x26>
	{ Fill_all(Color | 0xFF << 24); }

	if(ColorType == Color_A888)
 800061e:	4b09      	ldr	r3, [pc, #36]	; (8000644 <Fill_Display+0x38>)
 8000620:	781b      	ldrb	r3, [r3, #0]
 8000622:	2b02      	cmp	r3, #2
 8000624:	d00a      	beq.n	800063c <Fill_Display+0x30>
	{ Fill_all(Color); }
}
 8000626:	bd10      	pop	{r4, pc}
	{ Fill_all(Get565Color(Color)); }
 8000628:	f7ff ffa8 	bl	800057c <Get565Color>
 800062c:	f7ff ff7a 	bl	8000524 <Fill_all>
 8000630:	e7f1      	b.n	8000616 <Fill_Display+0xa>
	{ Fill_all(Color | 0xFF << 24); }
 8000632:	f044 407f 	orr.w	r0, r4, #4278190080	; 0xff000000
 8000636:	f7ff ff75 	bl	8000524 <Fill_all>
 800063a:	e7f0      	b.n	800061e <Fill_Display+0x12>
	{ Fill_all(Color); }
 800063c:	4620      	mov	r0, r4
 800063e:	f7ff ff71 	bl	8000524 <Fill_all>
}
 8000642:	e7f0      	b.n	8000626 <Fill_Display+0x1a>
 8000644:	20000034 	.word	0x20000034

08000648 <Fill_Rectangle>:
void Fill_Rectangle(uint32 Color, int32 StartX, int32 StopX, int32 StartY, int32 StopY) //заливает цветом прямоугольную область
{
 8000648:	e92d 41f0 	stmdb	sp!, {r4, r5, r6, r7, r8, lr}
 800064c:	b082      	sub	sp, #8
 800064e:	4680      	mov	r8, r0
 8000650:	4615      	mov	r5, r2
 8000652:	461c      	mov	r4, r3
 8000654:	9f08      	ldr	r7, [sp, #32]
	if(((StartX > 0) && (StartX <= DispWidth)) || ((StopX > 0) && (StopX <= DispWidth)))
 8000656:	1e0e      	subs	r6, r1, #0
 8000658:	dd03      	ble.n	8000662 <Fill_Rectangle+0x1a>
 800065a:	4b26      	ldr	r3, [pc, #152]	; (80006f4 <Fill_Rectangle+0xac>)
 800065c:	681b      	ldr	r3, [r3, #0]
 800065e:	429e      	cmp	r6, r3
 8000660:	d905      	bls.n	800066e <Fill_Rectangle+0x26>
 8000662:	2d00      	cmp	r5, #0
 8000664:	dd28      	ble.n	80006b8 <Fill_Rectangle+0x70>
 8000666:	4b23      	ldr	r3, [pc, #140]	; (80006f4 <Fill_Rectangle+0xac>)
 8000668:	681b      	ldr	r3, [r3, #0]
 800066a:	429d      	cmp	r5, r3
 800066c:	d824      	bhi.n	80006b8 <Fill_Rectangle+0x70>
	{
		if(((StartY > 0) && (StartY <= DispHeight)) || ((StopY > 0) && (StopY <= DispHeight)))
 800066e:	2c00      	cmp	r4, #0
 8000670:	dd03      	ble.n	800067a <Fill_Rectangle+0x32>
 8000672:	4b21      	ldr	r3, [pc, #132]	; (80006f8 <Fill_Rectangle+0xb0>)
 8000674:	681b      	ldr	r3, [r3, #0]
 8000676:	429c      	cmp	r4, r3
 8000678:	d905      	bls.n	8000686 <Fill_Rectangle+0x3e>
 800067a:	2f00      	cmp	r7, #0
 800067c:	dd1c      	ble.n	80006b8 <Fill_Rectangle+0x70>
 800067e:	4b1e      	ldr	r3, [pc, #120]	; (80006f8 <Fill_Rectangle+0xb0>)
 8000680:	681b      	ldr	r3, [r3, #0]
 8000682:	429f      	cmp	r7, r3
 8000684:	d818      	bhi.n	80006b8 <Fill_Rectangle+0x70>
		{
			if(StartX <= 0)
 8000686:	2e00      	cmp	r6, #0
 8000688:	dd19      	ble.n	80006be <Fill_Rectangle+0x76>
			{ StartX = 1;}
			if(StopX > DispWidth)
 800068a:	4b1a      	ldr	r3, [pc, #104]	; (80006f4 <Fill_Rectangle+0xac>)
 800068c:	681b      	ldr	r3, [r3, #0]
 800068e:	429d      	cmp	r5, r3
 8000690:	d900      	bls.n	8000694 <Fill_Rectangle+0x4c>
			{ StartX = DispWidth;}
 8000692:	461e      	mov	r6, r3

			if(StartY <= 0)
 8000694:	2c00      	cmp	r4, #0
 8000696:	dd14      	ble.n	80006c2 <Fill_Rectangle+0x7a>
			{ StartY = 1;}
			if(StopY > DispHeight)
 8000698:	4b17      	ldr	r3, [pc, #92]	; (80006f8 <Fill_Rectangle+0xb0>)
 800069a:	681b      	ldr	r3, [r3, #0]
 800069c:	429f      	cmp	r7, r3
 800069e:	d900      	bls.n	80006a2 <Fill_Rectangle+0x5a>
			{ StartY = DispHeight;}
 80006a0:	461c      	mov	r4, r3

			if(ColorType == Color565)
 80006a2:	4b16      	ldr	r3, [pc, #88]	; (80006fc <Fill_Rectangle+0xb4>)
 80006a4:	781b      	ldrb	r3, [r3, #0]
 80006a6:	b173      	cbz	r3, 80006c6 <Fill_Rectangle+0x7e>
			{ Fill_rectangle(Get565Color(Color), StartX, StopX, StartY, StopY); }

			if(ColorType == Color888)
 80006a8:	4b14      	ldr	r3, [pc, #80]	; (80006fc <Fill_Rectangle+0xb4>)
 80006aa:	781b      	ldrb	r3, [r3, #0]
 80006ac:	2b01      	cmp	r3, #1
 80006ae:	d014      	beq.n	80006da <Fill_Rectangle+0x92>
			{ Fill_rectangle(Color | 0xFF << 24, StartX, StopX, StartY, StopY); }

			if(ColorType == Color_A888)
 80006b0:	4b12      	ldr	r3, [pc, #72]	; (80006fc <Fill_Rectangle+0xb4>)
 80006b2:	781b      	ldrb	r3, [r3, #0]
 80006b4:	2b02      	cmp	r3, #2
 80006b6:	d019      	beq.n	80006ec <Fill_Rectangle+0xa4>
			{ Fill_all(Color); }
		}
	}
}
 80006b8:	b002      	add	sp, #8
 80006ba:	e8bd 81f0 	ldmia.w	sp!, {r4, r5, r6, r7, r8, pc}
			{ StartX = 1;}
 80006be:	2601      	movs	r6, #1
 80006c0:	e7e3      	b.n	800068a <Fill_Rectangle+0x42>
			{ StartY = 1;}
 80006c2:	2401      	movs	r4, #1
 80006c4:	e7e8      	b.n	8000698 <Fill_Rectangle+0x50>
			{ Fill_rectangle(Get565Color(Color), StartX, StopX, StartY, StopY); }
 80006c6:	4640      	mov	r0, r8
 80006c8:	f7ff ff58 	bl	800057c <Get565Color>
 80006cc:	9700      	str	r7, [sp, #0]
 80006ce:	4623      	mov	r3, r4
 80006d0:	462a      	mov	r2, r5
 80006d2:	4631      	mov	r1, r6
 80006d4:	f7ff ff34 	bl	8000540 <Fill_rectangle>
 80006d8:	e7e6      	b.n	80006a8 <Fill_Rectangle+0x60>
			{ Fill_rectangle(Color | 0xFF << 24, StartX, StopX, StartY, StopY); }
 80006da:	9700      	str	r7, [sp, #0]
 80006dc:	4623      	mov	r3, r4
 80006de:	462a      	mov	r2, r5
 80006e0:	4631      	mov	r1, r6
 80006e2:	f048 407f 	orr.w	r0, r8, #4278190080	; 0xff000000
 80006e6:	f7ff ff2b 	bl	8000540 <Fill_rectangle>
 80006ea:	e7e1      	b.n	80006b0 <Fill_Rectangle+0x68>
			{ Fill_all(Color); }
 80006ec:	4640      	mov	r0, r8
 80006ee:	f7ff ff19 	bl	8000524 <Fill_all>
}
 80006f2:	e7e1      	b.n	80006b8 <Fill_Rectangle+0x70>
 80006f4:	2000003c 	.word	0x2000003c
 80006f8:	20000038 	.word	0x20000038
 80006fc:	20000034 	.word	0x20000034

08000700 <HLine>:
void HLine(uint32 Color, int16 x1, int16 x2, int16 y1, uint8 Tolshina)//
{
 8000700:	b510      	push	{r4, lr}
 8000702:	b082      	sub	sp, #8
 8000704:	f89d 4010 	ldrb.w	r4, [sp, #16]
    if(Tolshina > 0)
 8000708:	b90c      	cbnz	r4, 800070e <HLine+0xe>
    {
    	Tolshina--;
    	Fill_Rectangle(Color, x1, x2, y1, y1+Tolshina);
    }
}
 800070a:	b002      	add	sp, #8
 800070c:	bd10      	pop	{r4, pc}
    	Tolshina--;
 800070e:	3c01      	subs	r4, #1
    	Fill_Rectangle(Color, x1, x2, y1, y1+Tolshina);
 8000710:	fa53 f484 	uxtab	r4, r3, r4
 8000714:	9400      	str	r4, [sp, #0]
 8000716:	f7ff ff97 	bl	8000648 <Fill_Rectangle>
}
 800071a:	e7f6      	b.n	800070a <HLine+0xa>

0800071c <VLine>:
void VLine(uint32 Color, int16 x1, int16 y1, int16 y2, uint8 Tolshina)
{
 800071c:	b530      	push	{r4, r5, lr}
 800071e:	b083      	sub	sp, #12
 8000720:	f89d 4018 	ldrb.w	r4, [sp, #24]
	if(Tolshina > 0)
 8000724:	b90c      	cbnz	r4, 800072a <VLine+0xe>
	{
		Tolshina--;
		Fill_Rectangle(Color, x1, x1+Tolshina, y1, y2);
	}
}
 8000726:	b003      	add	sp, #12
 8000728:	bd30      	pop	{r4, r5, pc}
 800072a:	461d      	mov	r5, r3
 800072c:	4613      	mov	r3, r2
		Tolshina--;
 800072e:	3c01      	subs	r4, #1
		Fill_Rectangle(Color, x1, x1+Tolshina, y1, y2);
 8000730:	9500      	str	r5, [sp, #0]
 8000732:	fa51 f284 	uxtab	r2, r1, r4
 8000736:	f7ff ff87 	bl	8000648 <Fill_Rectangle>
}
 800073a:	e7f4      	b.n	8000726 <VLine+0xa>

0800073c <FramePanel>:
void FramePanel(uint32 BorderColor, uint32 FloodColor, int16 x1, int16 x2, int16 y1, int16 y2, uint8 Tolshina)
{
 800073c:	e92d 47f0 	stmdb	sp!, {r4, r5, r6, r7, r8, r9, sl, lr}
 8000740:	b082      	sub	sp, #8
 8000742:	4607      	mov	r7, r0
 8000744:	4608      	mov	r0, r1
 8000746:	4692      	mov	sl, r2
 8000748:	461c      	mov	r4, r3
 800074a:	f9bd 8028 	ldrsh.w	r8, [sp, #40]	; 0x28
 800074e:	f9bd 902c 	ldrsh.w	r9, [sp, #44]	; 0x2c
 8000752:	f89d 6030 	ldrb.w	r6, [sp, #48]	; 0x30




	Tolshina --;
 8000756:	1e75      	subs	r5, r6, #1
 8000758:	b2ed      	uxtb	r5, r5
	Fill_Rectangle(FloodColor,x1,x2,y1,y2);
 800075a:	f8cd 9000 	str.w	r9, [sp]
 800075e:	4643      	mov	r3, r8
 8000760:	4622      	mov	r2, r4
 8000762:	4651      	mov	r1, sl
 8000764:	f7ff ff70 	bl	8000648 <Fill_Rectangle>
    HLine(BorderColor,x1,x2,y1,Tolshina + 1);
 8000768:	9600      	str	r6, [sp, #0]
 800076a:	4643      	mov	r3, r8
 800076c:	4622      	mov	r2, r4
 800076e:	4651      	mov	r1, sl
 8000770:	4638      	mov	r0, r7
 8000772:	f7ff ffc5 	bl	8000700 <HLine>
    HLine(BorderColor,x1,x2,y2 - Tolshina,Tolshina +1);
 8000776:	b2ad      	uxth	r5, r5
 8000778:	eba9 0305 	sub.w	r3, r9, r5
 800077c:	9600      	str	r6, [sp, #0]
 800077e:	b21b      	sxth	r3, r3
 8000780:	4622      	mov	r2, r4
 8000782:	4651      	mov	r1, sl
 8000784:	4638      	mov	r0, r7
 8000786:	f7ff ffbb 	bl	8000700 <HLine>
    VLine(BorderColor,x1,y1,y2,Tolshina + 1);
 800078a:	9600      	str	r6, [sp, #0]
 800078c:	464b      	mov	r3, r9
 800078e:	4642      	mov	r2, r8
 8000790:	4651      	mov	r1, sl
 8000792:	4638      	mov	r0, r7
 8000794:	f7ff ffc2 	bl	800071c <VLine>
    VLine(BorderColor,x2 - Tolshina,y1,y2,Tolshina + 1);
 8000798:	1b61      	subs	r1, r4, r5
 800079a:	9600      	str	r6, [sp, #0]
 800079c:	464b      	mov	r3, r9
 800079e:	4642      	mov	r2, r8
 80007a0:	b209      	sxth	r1, r1
 80007a2:	4638      	mov	r0, r7
 80007a4:	f7ff ffba 	bl	800071c <VLine>
}
 80007a8:	b002      	add	sp, #8
 80007aa:	e8bd 87f0 	ldmia.w	sp!, {r4, r5, r6, r7, r8, r9, sl, pc}

080007ae <Progress_bar>:
      r1--;
  }
}

void Progress_bar(uint16 XStart, uint16 XEnd, uint16 YStart, uint16 YEnd, uint16 StartPos, uint16 StopPos, uint16 CurrPos, uint32 BorderColor, uint32 FloodColor, uint32 BarColor, uint16 Tolshina, uint8 Orient)
{
 80007ae:	e92d 47f0 	stmdb	sp!, {r4, r5, r6, r7, r8, r9, sl, lr}
 80007b2:	b084      	sub	sp, #16
 80007b4:	4606      	mov	r6, r0
 80007b6:	4688      	mov	r8, r1
 80007b8:	4691      	mov	r9, r2
 80007ba:	461c      	mov	r4, r3
 80007bc:	f8bd 5030 	ldrh.w	r5, [sp, #48]	; 0x30
 80007c0:	f8bd 0034 	ldrh.w	r0, [sp, #52]	; 0x34
 80007c4:	f8bd c038 	ldrh.w	ip, [sp, #56]	; 0x38
 80007c8:	f8bd 3048 	ldrh.w	r3, [sp, #72]	; 0x48
 80007cc:	f89d 104c 	ldrb.w	r1, [sp, #76]	; 0x4c
  uint16 Tr = Tolshina - 1;
 80007d0:	1e5f      	subs	r7, r3, #1
 80007d2:	b2bf      	uxth	r7, r7
  float STPOS;
  float POSCOUNT;
  uint16 XPOS = 0, YPOS = 0;
  uint16 POSN = CurrPos - StartPos;
 80007d4:	ebac 0205 	sub.w	r2, ip, r5
 80007d8:	b292      	uxth	r2, r2
 80007da:	ee07 2a90 	vmov	s15, r2

  if(Orient == Horisontal)
 80007de:	2903      	cmp	r1, #3
 80007e0:	d03f      	beq.n	8000862 <Progress_bar+0xb4>
         XPOS = (uint16)((POSN * POSCOUNT)+ XStart);
      }
  }
  else
  {
      STPOS = StopPos - StartPos;
 80007e2:	1b42      	subs	r2, r0, r5
 80007e4:	ee06 2a90 	vmov	s13, r2
 80007e8:	eef8 6ae6 	vcvt.f32.s32	s13, s13
      POSCOUNT = (YEnd - YStart)/STPOS;
 80007ec:	eba4 0209 	sub.w	r2, r4, r9
 80007f0:	ee06 2a10 	vmov	s12, r2
 80007f4:	eeb8 6ac6 	vcvt.f32.s32	s12, s12
 80007f8:	ee86 7a26 	vdiv.f32	s14, s12, s13
      YPOS = (uint16)(YEnd - (POSN * POSCOUNT));
 80007fc:	eef8 7ae7 	vcvt.f32.s32	s15, s15
 8000800:	ee27 7a87 	vmul.f32	s14, s15, s14
 8000804:	ee07 4a90 	vmov	s15, r4
 8000808:	eef8 7ae7 	vcvt.f32.s32	s15, s15
 800080c:	ee77 7ac7 	vsub.f32	s15, s15, s14
 8000810:	eefc 7ae7 	vcvt.u32.f32	s15, s15
 8000814:	ee17 5a90 	vmov	r5, s15
      YPOS += Tolshina;
 8000818:	fa13 f585 	uxtah	r5, r3, r5
 800081c:	b2ad      	uxth	r5, r5
  uint16 XPOS = 0, YPOS = 0;
 800081e:	f04f 0a00 	mov.w	sl, #0
  }

  if(Orient == Horisontal)
 8000822:	2903      	cmp	r1, #3
 8000824:	f000 8099 	beq.w	800095a <Progress_bar+0x1ac>
      FramePanel(BorderColor,FloodColor,XStart,XEnd,YStart, YEnd,Tolshina);
      Fill_Rectangle(BarColor,XStart + 1 + Tr,XPOS-1,YStart + 1 + Tr,YEnd - Tr - 1);
  }
  else
  {
	  FramePanel(BorderColor,FloodColor,XStart,XEnd,YStart, YEnd,Tolshina);
 8000828:	b2db      	uxtb	r3, r3
 800082a:	9302      	str	r3, [sp, #8]
 800082c:	b223      	sxth	r3, r4
 800082e:	9301      	str	r3, [sp, #4]
 8000830:	fa0f f389 	sxth.w	r3, r9
 8000834:	9300      	str	r3, [sp, #0]
 8000836:	fa0f f388 	sxth.w	r3, r8
 800083a:	b232      	sxth	r2, r6
 800083c:	9910      	ldr	r1, [sp, #64]	; 0x40
 800083e:	980f      	ldr	r0, [sp, #60]	; 0x3c
 8000840:	f7ff ff7c 	bl	800073c <FramePanel>
	  Fill_Rectangle(BarColor, XStart + 1 + Tr,XEnd - Tr - 1, YPOS, YEnd - Tr - 1);
 8000844:	1c71      	adds	r1, r6, #1
 8000846:	eba8 0207 	sub.w	r2, r8, r7
 800084a:	1be4      	subs	r4, r4, r7
 800084c:	3c01      	subs	r4, #1
 800084e:	9400      	str	r4, [sp, #0]
 8000850:	462b      	mov	r3, r5
 8000852:	3a01      	subs	r2, #1
 8000854:	4439      	add	r1, r7
 8000856:	9811      	ldr	r0, [sp, #68]	; 0x44
 8000858:	f7ff fef6 	bl	8000648 <Fill_Rectangle>
  }
}
 800085c:	b004      	add	sp, #16
 800085e:	e8bd 87f0 	ldmia.w	sp!, {r4, r5, r6, r7, r8, r9, sl, pc}
      if(CurrPos == 1)
 8000862:	f1bc 0f01 	cmp.w	ip, #1
 8000866:	d024      	beq.n	80008b2 <Progress_bar+0x104>
  uint16 XPOS = 0, YPOS = 0;
 8000868:	f04f 0a00 	mov.w	sl, #0
      if(CurrPos == StartPos)
 800086c:	45ac      	cmp	ip, r5
 800086e:	d04e      	beq.n	800090e <Progress_bar+0x160>
      if(CurrPos > StartPos)
 8000870:	45ac      	cmp	ip, r5
 8000872:	d970      	bls.n	8000956 <Progress_bar+0x1a8>
         STPOS = StopPos - StartPos;
 8000874:	1b40      	subs	r0, r0, r5
 8000876:	ee07 0a10 	vmov	s14, r0
 800087a:	eef8 6ac7 	vcvt.f32.s32	s13, s14
         POSCOUNT = (XEnd - XStart)/STPOS;
 800087e:	eba8 0206 	sub.w	r2, r8, r6
 8000882:	ee06 2a10 	vmov	s12, r2
 8000886:	eeb8 6ac6 	vcvt.f32.s32	s12, s12
 800088a:	ee86 7a26 	vdiv.f32	s14, s12, s13
         XPOS = (uint16)((POSN * POSCOUNT)+ XStart);
 800088e:	eef8 7ae7 	vcvt.f32.s32	s15, s15
 8000892:	ee27 7a87 	vmul.f32	s14, s15, s14
 8000896:	ee07 6a90 	vmov	s15, r6
 800089a:	eef8 7ae7 	vcvt.f32.s32	s15, s15
 800089e:	ee77 7a87 	vadd.f32	s15, s15, s14
 80008a2:	eefc 7ae7 	vcvt.u32.f32	s15, s15
 80008a6:	ee17 2a90 	vmov	r2, s15
 80008aa:	fa1f fa82 	uxth.w	sl, r2
  uint16 XPOS = 0, YPOS = 0;
 80008ae:	2500      	movs	r5, #0
 80008b0:	e7b7      	b.n	8000822 <Progress_bar+0x74>
         STPOS = StopPos - StartPos;
 80008b2:	1b42      	subs	r2, r0, r5
 80008b4:	ee06 2a10 	vmov	s12, r2
 80008b8:	eeb8 6ac6 	vcvt.f32.s32	s12, s12
         POSCOUNT = (XEnd - XStart)/STPOS;
 80008bc:	eba8 0206 	sub.w	r2, r8, r6
 80008c0:	ee05 2a90 	vmov	s11, r2
 80008c4:	eef8 5ae5 	vcvt.f32.s32	s11, s11
 80008c8:	eec5 6a86 	vdiv.f32	s13, s11, s12
         XPOS = (uint16)((POSN - StartPos * POSCOUNT)+ XStart + 1 + Tr);
 80008cc:	ee07 5a10 	vmov	s14, r5
 80008d0:	eeb8 7ac7 	vcvt.f32.s32	s14, s14
 80008d4:	ee27 7a26 	vmul.f32	s14, s14, s13
 80008d8:	eef8 6ae7 	vcvt.f32.s32	s13, s15
 80008dc:	ee76 6ac7 	vsub.f32	s13, s13, s14
 80008e0:	ee07 6a10 	vmov	s14, r6
 80008e4:	eeb8 7ac7 	vcvt.f32.s32	s14, s14
 80008e8:	ee37 7a26 	vadd.f32	s14, s14, s13
 80008ec:	eef7 6a00 	vmov.f32	s13, #112	; 0x3f800000  1.0
 80008f0:	ee77 6a26 	vadd.f32	s13, s14, s13
 80008f4:	ee07 7a10 	vmov	s14, r7
 80008f8:	eeb8 7ac7 	vcvt.f32.s32	s14, s14
 80008fc:	ee37 7a26 	vadd.f32	s14, s14, s13
 8000900:	eebc 7ac7 	vcvt.u32.f32	s14, s14
 8000904:	ee17 2a10 	vmov	r2, s14
 8000908:	fa1f fa82 	uxth.w	sl, r2
 800090c:	e7ae      	b.n	800086c <Progress_bar+0xbe>
         STPOS = StopPos - StartPos;
 800090e:	1b42      	subs	r2, r0, r5
 8000910:	ee06 2a10 	vmov	s12, r2
 8000914:	eeb8 6ac6 	vcvt.f32.s32	s12, s12
         POSCOUNT = (XEnd - XStart)/STPOS;
 8000918:	eba8 0206 	sub.w	r2, r8, r6
 800091c:	ee05 2a90 	vmov	s11, r2
 8000920:	eef8 5ae5 	vcvt.f32.s32	s11, s11
 8000924:	ee85 7a86 	vdiv.f32	s14, s11, s12
         XPOS = (uint16)((POSN * POSCOUNT)+ XStart + Tr);
 8000928:	eef8 6ae7 	vcvt.f32.s32	s13, s15
 800092c:	ee66 6a87 	vmul.f32	s13, s13, s14
 8000930:	ee07 6a10 	vmov	s14, r6
 8000934:	eeb8 7ac7 	vcvt.f32.s32	s14, s14
 8000938:	ee77 6a26 	vadd.f32	s13, s14, s13
 800093c:	ee07 7a10 	vmov	s14, r7
 8000940:	eeb8 7ac7 	vcvt.f32.s32	s14, s14
 8000944:	ee37 7a26 	vadd.f32	s14, s14, s13
 8000948:	eebc 7ac7 	vcvt.u32.f32	s14, s14
 800094c:	ee17 2a10 	vmov	r2, s14
 8000950:	fa1f fa82 	uxth.w	sl, r2
 8000954:	e78c      	b.n	8000870 <Progress_bar+0xc2>
  uint16 XPOS = 0, YPOS = 0;
 8000956:	2500      	movs	r5, #0
 8000958:	e763      	b.n	8000822 <Progress_bar+0x74>
      FramePanel(BorderColor,FloodColor,XStart,XEnd,YStart, YEnd,Tolshina);
 800095a:	b2db      	uxtb	r3, r3
 800095c:	9302      	str	r3, [sp, #8]
 800095e:	b223      	sxth	r3, r4
 8000960:	9301      	str	r3, [sp, #4]
 8000962:	fa0f f389 	sxth.w	r3, r9
 8000966:	9300      	str	r3, [sp, #0]
 8000968:	fa0f f388 	sxth.w	r3, r8
 800096c:	b232      	sxth	r2, r6
 800096e:	9910      	ldr	r1, [sp, #64]	; 0x40
 8000970:	980f      	ldr	r0, [sp, #60]	; 0x3c
 8000972:	f7ff fee3 	bl	800073c <FramePanel>
      Fill_Rectangle(BarColor,XStart + 1 + Tr,XPOS-1,YStart + 1 + Tr,YEnd - Tr - 1);
 8000976:	1c71      	adds	r1, r6, #1
 8000978:	f109 0301 	add.w	r3, r9, #1
 800097c:	1be4      	subs	r4, r4, r7
 800097e:	3c01      	subs	r4, #1
 8000980:	9400      	str	r4, [sp, #0]
 8000982:	443b      	add	r3, r7
 8000984:	f10a 32ff 	add.w	r2, sl, #4294967295
 8000988:	4439      	add	r1, r7
 800098a:	9811      	ldr	r0, [sp, #68]	; 0x44
 800098c:	f7ff fe5c 	bl	8000648 <Fill_Rectangle>
 8000990:	e764      	b.n	800085c <Progress_bar+0xae>

08000992 <LCD_ProgressBar>:
{
	FillCircle(fillCircle->X1, fillCircle->Y1, fillCircle->R, fillCircle->Color);
}

void LCD_ProgressBar(D_ProgressBar *ProgressBar)
{
 8000992:	e92d 41f0 	stmdb	sp!, {r4, r5, r6, r7, r8, lr}
 8000996:	b088      	sub	sp, #32
	Progress_bar(ProgressBar->X1, ProgressBar->X2, ProgressBar->Y1, ProgressBar->Y2, ProgressBar->StartValue, ProgressBar->StopValue, ProgressBar->CurrentValue, ProgressBar->FrameColor, ProgressBar->FillColor, ProgressBar->BarColor, ProgressBar->Thickness, ProgressBar->Orientation);
 8000998:	6904      	ldr	r4, [r0, #16]
 800099a:	6945      	ldr	r5, [r0, #20]
 800099c:	6986      	ldr	r6, [r0, #24]
 800099e:	f890 c028 	ldrb.w	ip, [r0, #40]	; 0x28
 80009a2:	f890 e029 	ldrb.w	lr, [r0, #41]	; 0x29
 80009a6:	f8b0 800c 	ldrh.w	r8, [r0, #12]
 80009aa:	8902      	ldrh	r2, [r0, #8]
 80009ac:	8881      	ldrh	r1, [r0, #4]
 80009ae:	8807      	ldrh	r7, [r0, #0]
 80009b0:	f8cd e01c 	str.w	lr, [sp, #28]
 80009b4:	f8cd c018 	str.w	ip, [sp, #24]
 80009b8:	6a43      	ldr	r3, [r0, #36]	; 0x24
 80009ba:	9305      	str	r3, [sp, #20]
 80009bc:	6a03      	ldr	r3, [r0, #32]
 80009be:	9304      	str	r3, [sp, #16]
 80009c0:	69c0      	ldr	r0, [r0, #28]
 80009c2:	9003      	str	r0, [sp, #12]
 80009c4:	b2b6      	uxth	r6, r6
 80009c6:	9602      	str	r6, [sp, #8]
 80009c8:	b2ad      	uxth	r5, r5
 80009ca:	9501      	str	r5, [sp, #4]
 80009cc:	b2a4      	uxth	r4, r4
 80009ce:	9400      	str	r4, [sp, #0]
 80009d0:	4643      	mov	r3, r8
 80009d2:	4638      	mov	r0, r7
 80009d4:	f7ff feeb 	bl	80007ae <Progress_bar>
}
 80009d8:	b008      	add	sp, #32
 80009da:	e8bd 81f0 	ldmia.w	sp!, {r4, r5, r6, r7, r8, pc}
	...

080009e0 <MainFunc>:

extern LTDC_HandleTypeDef hltdc;
DisplayConfig ds;

void MainFunc ()
{
 80009e0:	b530      	push	{r4, r5, lr}
 80009e2:	b08d      	sub	sp, #52	; 0x34
	ds.Color_Type = Color565;
 80009e4:	4c23      	ldr	r4, [pc, #140]	; (8000a74 <MainFunc+0x94>)
 80009e6:	2500      	movs	r5, #0
 80009e8:	7325      	strb	r5, [r4, #12]
	ds.Display_Height = 272;
 80009ea:	f44f 7388 	mov.w	r3, #272	; 0x110
 80009ee:	6063      	str	r3, [r4, #4]
	ds.Display_Width = 480;
 80009f0:	f44f 73f0 	mov.w	r3, #480	; 0x1e0
 80009f4:	60a3      	str	r3, [r4, #8]
	ds.Layers = 1;
 80009f6:	2301      	movs	r3, #1
 80009f8:	7363      	strb	r3, [r4, #13]
	ds.Start_RAM_Address = (uint32_t)&RGB;
 80009fa:	491f      	ldr	r1, [pc, #124]	; (8000a78 <MainFunc+0x98>)
 80009fc:	6021      	str	r1, [r4, #0]

	HAL_LTDC_SetAddress(&hltdc,(uint32_t)&RGB,0);  // запускаем модуль LTDC (железный)
 80009fe:	462a      	mov	r2, r5
 8000a00:	481e      	ldr	r0, [pc, #120]	; (8000a7c <MainFunc+0x9c>)
 8000a02:	f001 fcab 	bl	800235c <HAL_LTDC_SetAddress>
	Graphics_Init(&ds); //инит библиотеки (из структуры ds)
 8000a06:	4620      	mov	r0, r4
 8000a08:	f7ff fde6 	bl	80005d8 <Graphics_Init>

	Fill_Display(green);
 8000a0c:	f44f 407f 	mov.w	r0, #65280	; 0xff00
 8000a10:	f7ff fdfc 	bl	800060c <Fill_Display>
	HAL_Delay(1000);
 8000a14:	f44f 707a 	mov.w	r0, #1000	; 0x3e8
 8000a18:	f000 ff30 	bl	800187c <HAL_Delay>
	ball.X1 = 200;
	ball.Y1 = 125;
	ball.Color = green;
	ball.R = 40;

	p.X1 = 200;
 8000a1c:	23c8      	movs	r3, #200	; 0xc8
 8000a1e:	9301      	str	r3, [sp, #4]
	p.X2 = 400;
 8000a20:	f44f 73c8 	mov.w	r3, #400	; 0x190
 8000a24:	9302      	str	r3, [sp, #8]
	p.Y1 = 100;
 8000a26:	2364      	movs	r3, #100	; 0x64
 8000a28:	9303      	str	r3, [sp, #12]
	p.Y2 = 120;
 8000a2a:	2378      	movs	r3, #120	; 0x78
 8000a2c:	9304      	str	r3, [sp, #16]
	p.StartValue = 0;
 8000a2e:	9505      	str	r5, [sp, #20]
	p.StopValue = 19;
 8000a30:	2313      	movs	r3, #19
 8000a32:	9306      	str	r3, [sp, #24]
	p.CurrentValue = 6;
	p.Thickness = 3;
 8000a34:	2303      	movs	r3, #3
 8000a36:	f88d 302c 	strb.w	r3, [sp, #44]	; 0x2c
	p.FillColor = white;
 8000a3a:	f06f 427f 	mvn.w	r2, #4278190080	; 0xff000000
 8000a3e:	9209      	str	r2, [sp, #36]	; 0x24
	p.FrameColor = blue;
 8000a40:	22ff      	movs	r2, #255	; 0xff
 8000a42:	9208      	str	r2, [sp, #32]
	p.BarColor = green;
 8000a44:	f44f 427f 	mov.w	r2, #65280	; 0xff00
 8000a48:	920a      	str	r2, [sp, #40]	; 0x28
	p.Orientation = Horisontal;
 8000a4a:	f88d 302d 	strb.w	r3, [sp, #45]	; 0x2d
 8000a4e:	e00e      	b.n	8000a6e <MainFunc+0x8e>
//		LCD_FillCircle(&ball);
//		HAL_Delay(1000);

		for(i = 0; i < 20; i++)
		{
			p.CurrentValue = i;
 8000a50:	9407      	str	r4, [sp, #28]
		    Fill_Display(black);
 8000a52:	2000      	movs	r0, #0
 8000a54:	f7ff fdda 	bl	800060c <Fill_Display>
		    LCD_ProgressBar(&p);
 8000a58:	a801      	add	r0, sp, #4
 8000a5a:	f7ff ff9a 	bl	8000992 <LCD_ProgressBar>
		    HAL_Delay(400);
 8000a5e:	f44f 70c8 	mov.w	r0, #400	; 0x190
 8000a62:	f000 ff0b 	bl	800187c <HAL_Delay>
		for(i = 0; i < 20; i++)
 8000a66:	3401      	adds	r4, #1
 8000a68:	b2e4      	uxtb	r4, r4
 8000a6a:	2c13      	cmp	r4, #19
 8000a6c:	d9f0      	bls.n	8000a50 <MainFunc+0x70>
 8000a6e:	2400      	movs	r4, #0
 8000a70:	e7fb      	b.n	8000a6a <MainFunc+0x8a>
 8000a72:	bf00      	nop
 8000a74:	20000044 	.word	0x20000044
 8000a78:	20000054 	.word	0x20000054
 8000a7c:	2003fd24 	.word	0x2003fd24

08000a80 <MPU_Config>:
/* USER CODE END 4 */

/* MPU Configuration */

void MPU_Config(void)
{
 8000a80:	b510      	push	{r4, lr}
 8000a82:	b084      	sub	sp, #16
  MPU_Region_InitTypeDef MPU_InitStruct = {0};
 8000a84:	2400      	movs	r4, #0
 8000a86:	9400      	str	r4, [sp, #0]
 8000a88:	9401      	str	r4, [sp, #4]
 8000a8a:	9402      	str	r4, [sp, #8]
 8000a8c:	9403      	str	r4, [sp, #12]

  /* Disables the MPU */
  HAL_MPU_Disable();
 8000a8e:	f000 ff5b 	bl	8001948 <HAL_MPU_Disable>
  /** Initializes and configures the Region and the memory to be protected
  */
  MPU_InitStruct.Enable = MPU_REGION_ENABLE;
 8000a92:	2301      	movs	r3, #1
 8000a94:	f88d 3000 	strb.w	r3, [sp]
  MPU_InitStruct.Number = MPU_REGION_NUMBER0;
 8000a98:	f88d 4001 	strb.w	r4, [sp, #1]
  MPU_InitStruct.BaseAddress = 0x20000004;
 8000a9c:	4a0d      	ldr	r2, [pc, #52]	; (8000ad4 <MPU_Config+0x54>)
 8000a9e:	9201      	str	r2, [sp, #4]
  MPU_InitStruct.Size = MPU_REGION_SIZE_256KB;
 8000aa0:	2211      	movs	r2, #17
 8000aa2:	f88d 2008 	strb.w	r2, [sp, #8]
  MPU_InitStruct.SubRegionDisable = 0x0;
 8000aa6:	f88d 4009 	strb.w	r4, [sp, #9]
  MPU_InitStruct.TypeExtField = MPU_TEX_LEVEL0;
 8000aaa:	f88d 400a 	strb.w	r4, [sp, #10]
  MPU_InitStruct.AccessPermission = MPU_REGION_FULL_ACCESS;
 8000aae:	2203      	movs	r2, #3
 8000ab0:	f88d 200b 	strb.w	r2, [sp, #11]
  MPU_InitStruct.DisableExec = MPU_INSTRUCTION_ACCESS_ENABLE;
 8000ab4:	f88d 400c 	strb.w	r4, [sp, #12]
  MPU_InitStruct.IsShareable = MPU_ACCESS_NOT_SHAREABLE;
 8000ab8:	f88d 400d 	strb.w	r4, [sp, #13]
  MPU_InitStruct.IsCacheable = MPU_ACCESS_CACHEABLE;
 8000abc:	f88d 300e 	strb.w	r3, [sp, #14]
  MPU_InitStruct.IsBufferable = MPU_ACCESS_NOT_BUFFERABLE;
 8000ac0:	f88d 400f 	strb.w	r4, [sp, #15]

  HAL_MPU_ConfigRegion(&MPU_InitStruct);
 8000ac4:	4668      	mov	r0, sp
 8000ac6:	f000 ff61 	bl	800198c <HAL_MPU_ConfigRegion>
  /* Enables the MPU */
  HAL_MPU_Enable(MPU_PRIVILEGED_DEFAULT);
 8000aca:	2004      	movs	r0, #4
 8000acc:	f000 ff4c 	bl	8001968 <HAL_MPU_Enable>

}
 8000ad0:	b004      	add	sp, #16
 8000ad2:	bd10      	pop	{r4, pc}
 8000ad4:	20000004 	.word	0x20000004

08000ad8 <MX_GPIO_Init>:
{
 8000ad8:	e92d 4ff0 	stmdb	sp!, {r4, r5, r6, r7, r8, r9, sl, fp, lr}
 8000adc:	b091      	sub	sp, #68	; 0x44
  GPIO_InitTypeDef GPIO_InitStruct = {0};
 8000ade:	2400      	movs	r4, #0
 8000ae0:	940b      	str	r4, [sp, #44]	; 0x2c
 8000ae2:	940c      	str	r4, [sp, #48]	; 0x30
 8000ae4:	940d      	str	r4, [sp, #52]	; 0x34
 8000ae6:	940e      	str	r4, [sp, #56]	; 0x38
 8000ae8:	940f      	str	r4, [sp, #60]	; 0x3c
  __HAL_RCC_GPIOE_CLK_ENABLE();
 8000aea:	4ba9      	ldr	r3, [pc, #676]	; (8000d90 <MX_GPIO_Init+0x2b8>)
 8000aec:	6b1a      	ldr	r2, [r3, #48]	; 0x30
 8000aee:	f042 0210 	orr.w	r2, r2, #16
 8000af2:	631a      	str	r2, [r3, #48]	; 0x30
 8000af4:	6b1a      	ldr	r2, [r3, #48]	; 0x30
 8000af6:	f002 0210 	and.w	r2, r2, #16
 8000afa:	9200      	str	r2, [sp, #0]
 8000afc:	9a00      	ldr	r2, [sp, #0]
  __HAL_RCC_GPIOG_CLK_ENABLE();
 8000afe:	6b1a      	ldr	r2, [r3, #48]	; 0x30
 8000b00:	f042 0240 	orr.w	r2, r2, #64	; 0x40
 8000b04:	631a      	str	r2, [r3, #48]	; 0x30
 8000b06:	6b1a      	ldr	r2, [r3, #48]	; 0x30
 8000b08:	f002 0240 	and.w	r2, r2, #64	; 0x40
 8000b0c:	9201      	str	r2, [sp, #4]
 8000b0e:	9a01      	ldr	r2, [sp, #4]
  __HAL_RCC_GPIOB_CLK_ENABLE();
 8000b10:	6b1a      	ldr	r2, [r3, #48]	; 0x30
 8000b12:	f042 0202 	orr.w	r2, r2, #2
 8000b16:	631a      	str	r2, [r3, #48]	; 0x30
 8000b18:	6b1a      	ldr	r2, [r3, #48]	; 0x30
 8000b1a:	f002 0202 	and.w	r2, r2, #2
 8000b1e:	9202      	str	r2, [sp, #8]
 8000b20:	9a02      	ldr	r2, [sp, #8]
  __HAL_RCC_GPIOD_CLK_ENABLE();
 8000b22:	6b1a      	ldr	r2, [r3, #48]	; 0x30
 8000b24:	f042 0208 	orr.w	r2, r2, #8
 8000b28:	631a      	str	r2, [r3, #48]	; 0x30
 8000b2a:	6b1a      	ldr	r2, [r3, #48]	; 0x30
 8000b2c:	f002 0208 	and.w	r2, r2, #8
 8000b30:	9203      	str	r2, [sp, #12]
 8000b32:	9a03      	ldr	r2, [sp, #12]
  __HAL_RCC_GPIOC_CLK_ENABLE();
 8000b34:	6b1a      	ldr	r2, [r3, #48]	; 0x30
 8000b36:	f042 0204 	orr.w	r2, r2, #4
 8000b3a:	631a      	str	r2, [r3, #48]	; 0x30
 8000b3c:	6b1a      	ldr	r2, [r3, #48]	; 0x30
 8000b3e:	f002 0204 	and.w	r2, r2, #4
 8000b42:	9204      	str	r2, [sp, #16]
 8000b44:	9a04      	ldr	r2, [sp, #16]
  __HAL_RCC_GPIOA_CLK_ENABLE();
 8000b46:	6b1a      	ldr	r2, [r3, #48]	; 0x30
 8000b48:	f042 0201 	orr.w	r2, r2, #1
 8000b4c:	631a      	str	r2, [r3, #48]	; 0x30
 8000b4e:	6b1a      	ldr	r2, [r3, #48]	; 0x30
 8000b50:	f002 0201 	and.w	r2, r2, #1
 8000b54:	9205      	str	r2, [sp, #20]
 8000b56:	9a05      	ldr	r2, [sp, #20]
  __HAL_RCC_GPIOJ_CLK_ENABLE();
 8000b58:	6b1a      	ldr	r2, [r3, #48]	; 0x30
 8000b5a:	f442 7200 	orr.w	r2, r2, #512	; 0x200
 8000b5e:	631a      	str	r2, [r3, #48]	; 0x30
 8000b60:	6b1a      	ldr	r2, [r3, #48]	; 0x30
 8000b62:	f402 7200 	and.w	r2, r2, #512	; 0x200
 8000b66:	9206      	str	r2, [sp, #24]
 8000b68:	9a06      	ldr	r2, [sp, #24]
  __HAL_RCC_GPIOI_CLK_ENABLE();
 8000b6a:	6b1a      	ldr	r2, [r3, #48]	; 0x30
 8000b6c:	f442 7280 	orr.w	r2, r2, #256	; 0x100
 8000b70:	631a      	str	r2, [r3, #48]	; 0x30
 8000b72:	6b1a      	ldr	r2, [r3, #48]	; 0x30
 8000b74:	f402 7280 	and.w	r2, r2, #256	; 0x100
 8000b78:	9207      	str	r2, [sp, #28]
 8000b7a:	9a07      	ldr	r2, [sp, #28]
  __HAL_RCC_GPIOK_CLK_ENABLE();
 8000b7c:	6b1a      	ldr	r2, [r3, #48]	; 0x30
 8000b7e:	f442 6280 	orr.w	r2, r2, #1024	; 0x400
 8000b82:	631a      	str	r2, [r3, #48]	; 0x30
 8000b84:	6b1a      	ldr	r2, [r3, #48]	; 0x30
 8000b86:	f402 6280 	and.w	r2, r2, #1024	; 0x400
 8000b8a:	9208      	str	r2, [sp, #32]
 8000b8c:	9a08      	ldr	r2, [sp, #32]
  __HAL_RCC_GPIOF_CLK_ENABLE();
 8000b8e:	6b1a      	ldr	r2, [r3, #48]	; 0x30
 8000b90:	f042 0220 	orr.w	r2, r2, #32
 8000b94:	631a      	str	r2, [r3, #48]	; 0x30
 8000b96:	6b1a      	ldr	r2, [r3, #48]	; 0x30
 8000b98:	f002 0220 	and.w	r2, r2, #32
 8000b9c:	9209      	str	r2, [sp, #36]	; 0x24
 8000b9e:	9a09      	ldr	r2, [sp, #36]	; 0x24
  __HAL_RCC_GPIOH_CLK_ENABLE();
 8000ba0:	6b1a      	ldr	r2, [r3, #48]	; 0x30
 8000ba2:	f042 0280 	orr.w	r2, r2, #128	; 0x80
 8000ba6:	631a      	str	r2, [r3, #48]	; 0x30
 8000ba8:	6b1b      	ldr	r3, [r3, #48]	; 0x30
 8000baa:	f003 0380 	and.w	r3, r3, #128	; 0x80
 8000bae:	930a      	str	r3, [sp, #40]	; 0x28
 8000bb0:	9b0a      	ldr	r3, [sp, #40]	; 0x28
  HAL_GPIO_WritePin(OTG_FS_PowerSwitchOn_GPIO_Port, OTG_FS_PowerSwitchOn_Pin, GPIO_PIN_SET);
 8000bb2:	2201      	movs	r2, #1
 8000bb4:	2120      	movs	r1, #32
 8000bb6:	4877      	ldr	r0, [pc, #476]	; (8000d94 <MX_GPIO_Init+0x2bc>)
 8000bb8:	f001 f930 	bl	8001e1c <HAL_GPIO_WritePin>
  HAL_GPIO_WritePin(GPIOI, ARDUINO_D7_Pin|ARDUINO_D8_Pin, GPIO_PIN_RESET);
 8000bbc:	4622      	mov	r2, r4
 8000bbe:	210c      	movs	r1, #12
 8000bc0:	4875      	ldr	r0, [pc, #468]	; (8000d98 <MX_GPIO_Init+0x2c0>)
 8000bc2:	f001 f92b 	bl	8001e1c <HAL_GPIO_WritePin>
  HAL_GPIO_WritePin(LCD_BL_CTRL_GPIO_Port, LCD_BL_CTRL_Pin, GPIO_PIN_SET);
 8000bc6:	2201      	movs	r2, #1
 8000bc8:	2108      	movs	r1, #8
 8000bca:	4874      	ldr	r0, [pc, #464]	; (8000d9c <MX_GPIO_Init+0x2c4>)
 8000bcc:	f001 f926 	bl	8001e1c <HAL_GPIO_WritePin>
  HAL_GPIO_WritePin(LCD_DISP_GPIO_Port, LCD_DISP_Pin, GPIO_PIN_SET);
 8000bd0:	2201      	movs	r2, #1
 8000bd2:	f44f 5180 	mov.w	r1, #4096	; 0x1000
 8000bd6:	4870      	ldr	r0, [pc, #448]	; (8000d98 <MX_GPIO_Init+0x2c0>)
 8000bd8:	f001 f920 	bl	8001e1c <HAL_GPIO_WritePin>
  HAL_GPIO_WritePin(DCMI_PWR_EN_GPIO_Port, DCMI_PWR_EN_Pin, GPIO_PIN_RESET);
 8000bdc:	4622      	mov	r2, r4
 8000bde:	f44f 5100 	mov.w	r1, #8192	; 0x2000
 8000be2:	486f      	ldr	r0, [pc, #444]	; (8000da0 <MX_GPIO_Init+0x2c8>)
 8000be4:	f001 f91a 	bl	8001e1c <HAL_GPIO_WritePin>
  HAL_GPIO_WritePin(GPIOG, ARDUINO_D4_Pin|ARDUINO_D2_Pin|EXT_RST_Pin, GPIO_PIN_RESET);
 8000be8:	4622      	mov	r2, r4
 8000bea:	21c8      	movs	r1, #200	; 0xc8
 8000bec:	486d      	ldr	r0, [pc, #436]	; (8000da4 <MX_GPIO_Init+0x2cc>)
 8000bee:	f001 f915 	bl	8001e1c <HAL_GPIO_WritePin>
  GPIO_InitStruct.Pin = OTG_HS_OverCurrent_Pin;
 8000bf2:	f04f 0b08 	mov.w	fp, #8
 8000bf6:	f8cd b02c 	str.w	fp, [sp, #44]	; 0x2c
  GPIO_InitStruct.Mode = GPIO_MODE_INPUT;
 8000bfa:	940c      	str	r4, [sp, #48]	; 0x30
  GPIO_InitStruct.Pull = GPIO_NOPULL;
 8000bfc:	940d      	str	r4, [sp, #52]	; 0x34
  HAL_GPIO_Init(OTG_HS_OverCurrent_GPIO_Port, &GPIO_InitStruct);
 8000bfe:	a90b      	add	r1, sp, #44	; 0x2c
 8000c00:	4869      	ldr	r0, [pc, #420]	; (8000da8 <MX_GPIO_Init+0x2d0>)
 8000c02:	f001 f81d 	bl	8001c40 <HAL_GPIO_Init>
  GPIO_InitStruct.Pin = QSPI_D2_Pin;
 8000c06:	2304      	movs	r3, #4
 8000c08:	930b      	str	r3, [sp, #44]	; 0x2c
  GPIO_InitStruct.Mode = GPIO_MODE_AF_PP;
 8000c0a:	2502      	movs	r5, #2
 8000c0c:	950c      	str	r5, [sp, #48]	; 0x30
  GPIO_InitStruct.Pull = GPIO_NOPULL;
 8000c0e:	940d      	str	r4, [sp, #52]	; 0x34
  GPIO_InitStruct.Speed = GPIO_SPEED_FREQ_VERY_HIGH;
 8000c10:	2603      	movs	r6, #3
 8000c12:	960e      	str	r6, [sp, #56]	; 0x38
  GPIO_InitStruct.Alternate = GPIO_AF9_QUADSPI;
 8000c14:	2309      	movs	r3, #9
 8000c16:	930f      	str	r3, [sp, #60]	; 0x3c
  HAL_GPIO_Init(QSPI_D2_GPIO_Port, &GPIO_InitStruct);
 8000c18:	a90b      	add	r1, sp, #44	; 0x2c
 8000c1a:	4863      	ldr	r0, [pc, #396]	; (8000da8 <MX_GPIO_Init+0x2d0>)
 8000c1c:	f001 f810 	bl	8001c40 <HAL_GPIO_Init>
  GPIO_InitStruct.Pin = RMII_TXD1_Pin|RMII_TXD0_Pin|RMII_TX_EN_Pin;
 8000c20:	f44f 43d0 	mov.w	r3, #26624	; 0x6800
 8000c24:	930b      	str	r3, [sp, #44]	; 0x2c
  GPIO_InitStruct.Mode = GPIO_MODE_AF_PP;
 8000c26:	950c      	str	r5, [sp, #48]	; 0x30
  GPIO_InitStruct.Pull = GPIO_NOPULL;
 8000c28:	940d      	str	r4, [sp, #52]	; 0x34
  GPIO_InitStruct.Speed = GPIO_SPEED_FREQ_VERY_HIGH;
 8000c2a:	960e      	str	r6, [sp, #56]	; 0x38
  GPIO_InitStruct.Alternate = GPIO_AF11_ETH;
 8000c2c:	230b      	movs	r3, #11
 8000c2e:	930f      	str	r3, [sp, #60]	; 0x3c
  HAL_GPIO_Init(GPIOG, &GPIO_InitStruct);
 8000c30:	a90b      	add	r1, sp, #44	; 0x2c
 8000c32:	485c      	ldr	r0, [pc, #368]	; (8000da4 <MX_GPIO_Init+0x2cc>)
 8000c34:	f001 f804 	bl	8001c40 <HAL_GPIO_Init>
  GPIO_InitStruct.Pin = ARDUINO_SCL_D15_Pin|ARDUINO_SDA_D14_Pin;
 8000c38:	f44f 7340 	mov.w	r3, #768	; 0x300
 8000c3c:	930b      	str	r3, [sp, #44]	; 0x2c
  GPIO_InitStruct.Mode = GPIO_MODE_AF_OD;
 8000c3e:	2312      	movs	r3, #18
 8000c40:	930c      	str	r3, [sp, #48]	; 0x30
  GPIO_InitStruct.Pull = GPIO_NOPULL;
 8000c42:	940d      	str	r4, [sp, #52]	; 0x34
  GPIO_InitStruct.Speed = GPIO_SPEED_FREQ_LOW;
 8000c44:	940e      	str	r4, [sp, #56]	; 0x38
  GPIO_InitStruct.Alternate = GPIO_AF4_I2C1;
 8000c46:	2304      	movs	r3, #4
 8000c48:	930f      	str	r3, [sp, #60]	; 0x3c
  HAL_GPIO_Init(GPIOB, &GPIO_InitStruct);
 8000c4a:	a90b      	add	r1, sp, #44	; 0x2c
 8000c4c:	4857      	ldr	r0, [pc, #348]	; (8000dac <MX_GPIO_Init+0x2d4>)
 8000c4e:	f000 fff7 	bl	8001c40 <HAL_GPIO_Init>
  GPIO_InitStruct.Pin = ULPI_D7_Pin|ULPI_D6_Pin|ULPI_D5_Pin|ULPI_D3_Pin
 8000c52:	f643 4323 	movw	r3, #15395	; 0x3c23
 8000c56:	930b      	str	r3, [sp, #44]	; 0x2c
  GPIO_InitStruct.Mode = GPIO_MODE_AF_PP;
 8000c58:	950c      	str	r5, [sp, #48]	; 0x30
  GPIO_InitStruct.Pull = GPIO_NOPULL;
 8000c5a:	940d      	str	r4, [sp, #52]	; 0x34
  GPIO_InitStruct.Speed = GPIO_SPEED_FREQ_VERY_HIGH;
 8000c5c:	960e      	str	r6, [sp, #56]	; 0x38
  GPIO_InitStruct.Alternate = GPIO_AF10_OTG_HS;
 8000c5e:	f04f 080a 	mov.w	r8, #10
 8000c62:	f8cd 803c 	str.w	r8, [sp, #60]	; 0x3c
  HAL_GPIO_Init(GPIOB, &GPIO_InitStruct);
 8000c66:	a90b      	add	r1, sp, #44	; 0x2c
 8000c68:	4850      	ldr	r0, [pc, #320]	; (8000dac <MX_GPIO_Init+0x2d4>)
 8000c6a:	f000 ffe9 	bl	8001c40 <HAL_GPIO_Init>
  GPIO_InitStruct.Pin = ARDUINO_PWM_D3_Pin;
 8000c6e:	2310      	movs	r3, #16
 8000c70:	930b      	str	r3, [sp, #44]	; 0x2c
  GPIO_InitStruct.Mode = GPIO_MODE_AF_PP;
 8000c72:	950c      	str	r5, [sp, #48]	; 0x30
  GPIO_InitStruct.Pull = GPIO_NOPULL;
 8000c74:	940d      	str	r4, [sp, #52]	; 0x34
  GPIO_InitStruct.Speed = GPIO_SPEED_FREQ_LOW;
 8000c76:	940e      	str	r4, [sp, #56]	; 0x38
  GPIO_InitStruct.Alternate = GPIO_AF2_TIM3;
 8000c78:	950f      	str	r5, [sp, #60]	; 0x3c
  HAL_GPIO_Init(ARDUINO_PWM_D3_GPIO_Port, &GPIO_InitStruct);
 8000c7a:	a90b      	add	r1, sp, #44	; 0x2c
 8000c7c:	484b      	ldr	r0, [pc, #300]	; (8000dac <MX_GPIO_Init+0x2d4>)
 8000c7e:	f000 ffdf 	bl	8001c40 <HAL_GPIO_Init>
  GPIO_InitStruct.Pin = SPDIF_RX0_Pin;
 8000c82:	f04f 0a80 	mov.w	sl, #128	; 0x80
 8000c86:	f8cd a02c 	str.w	sl, [sp, #44]	; 0x2c
  GPIO_InitStruct.Mode = GPIO_MODE_AF_PP;
 8000c8a:	950c      	str	r5, [sp, #48]	; 0x30
  GPIO_InitStruct.Pull = GPIO_NOPULL;
 8000c8c:	940d      	str	r4, [sp, #52]	; 0x34
  GPIO_InitStruct.Speed = GPIO_SPEED_FREQ_LOW;
 8000c8e:	940e      	str	r4, [sp, #56]	; 0x38
  GPIO_InitStruct.Alternate = GPIO_AF8_SPDIFRX;
 8000c90:	f8cd b03c 	str.w	fp, [sp, #60]	; 0x3c
  HAL_GPIO_Init(SPDIF_RX0_GPIO_Port, &GPIO_InitStruct);
 8000c94:	a90b      	add	r1, sp, #44	; 0x2c
 8000c96:	483f      	ldr	r0, [pc, #252]	; (8000d94 <MX_GPIO_Init+0x2bc>)
 8000c98:	f000 ffd2 	bl	8001c40 <HAL_GPIO_Init>
  GPIO_InitStruct.Pin = ARDUINO_PWM_D9_Pin;
 8000c9c:	f44f 4300 	mov.w	r3, #32768	; 0x8000
 8000ca0:	930b      	str	r3, [sp, #44]	; 0x2c
  GPIO_InitStruct.Mode = GPIO_MODE_AF_PP;
 8000ca2:	950c      	str	r5, [sp, #48]	; 0x30
  GPIO_InitStruct.Pull = GPIO_NOPULL;
 8000ca4:	940d      	str	r4, [sp, #52]	; 0x34
  GPIO_InitStruct.Speed = GPIO_SPEED_FREQ_LOW;
 8000ca6:	940e      	str	r4, [sp, #56]	; 0x38
  GPIO_InitStruct.Alternate = GPIO_AF1_TIM2;
 8000ca8:	2701      	movs	r7, #1
 8000caa:	970f      	str	r7, [sp, #60]	; 0x3c
  HAL_GPIO_Init(ARDUINO_PWM_D9_GPIO_Port, &GPIO_InitStruct);
 8000cac:	a90b      	add	r1, sp, #44	; 0x2c
 8000cae:	4840      	ldr	r0, [pc, #256]	; (8000db0 <MX_GPIO_Init+0x2d8>)
 8000cb0:	f000 ffc6 	bl	8001c40 <HAL_GPIO_Init>
  GPIO_InitStruct.Pin = DCMI_D6_Pin|DCMI_D7_Pin;
 8000cb4:	2360      	movs	r3, #96	; 0x60
 8000cb6:	930b      	str	r3, [sp, #44]	; 0x2c
  GPIO_InitStruct.Mode = GPIO_MODE_AF_PP;
 8000cb8:	950c      	str	r5, [sp, #48]	; 0x30
  GPIO_InitStruct.Pull = GPIO_NOPULL;
 8000cba:	940d      	str	r4, [sp, #52]	; 0x34
  GPIO_InitStruct.Speed = GPIO_SPEED_FREQ_LOW;
 8000cbc:	940e      	str	r4, [sp, #56]	; 0x38
  GPIO_InitStruct.Alternate = GPIO_AF13_DCMI;
 8000cbe:	f04f 090d 	mov.w	r9, #13
 8000cc2:	f8cd 903c 	str.w	r9, [sp, #60]	; 0x3c
  HAL_GPIO_Init(GPIOE, &GPIO_InitStruct);
 8000cc6:	a90b      	add	r1, sp, #44	; 0x2c
 8000cc8:	4837      	ldr	r0, [pc, #220]	; (8000da8 <MX_GPIO_Init+0x2d0>)
 8000cca:	f000 ffb9 	bl	8001c40 <HAL_GPIO_Init>
  GPIO_InitStruct.Pin = VCP_RX_Pin;
 8000cce:	f8cd a02c 	str.w	sl, [sp, #44]	; 0x2c
  GPIO_InitStruct.Mode = GPIO_MODE_AF_PP;
 8000cd2:	950c      	str	r5, [sp, #48]	; 0x30
  GPIO_InitStruct.Pull = GPIO_NOPULL;
 8000cd4:	940d      	str	r4, [sp, #52]	; 0x34
  GPIO_InitStruct.Speed = GPIO_SPEED_FREQ_LOW;
 8000cd6:	940e      	str	r4, [sp, #56]	; 0x38
  GPIO_InitStruct.Alternate = GPIO_AF7_USART1;
 8000cd8:	2307      	movs	r3, #7
 8000cda:	930f      	str	r3, [sp, #60]	; 0x3c
  HAL_GPIO_Init(VCP_RX_GPIO_Port, &GPIO_InitStruct);
 8000cdc:	a90b      	add	r1, sp, #44	; 0x2c
 8000cde:	4833      	ldr	r0, [pc, #204]	; (8000dac <MX_GPIO_Init+0x2d4>)
 8000ce0:	f000 ffae 	bl	8001c40 <HAL_GPIO_Init>
  GPIO_InitStruct.Pin = QSPI_NCS_Pin;
 8000ce4:	2340      	movs	r3, #64	; 0x40
 8000ce6:	930b      	str	r3, [sp, #44]	; 0x2c
  GPIO_InitStruct.Mode = GPIO_MODE_AF_PP;
 8000ce8:	950c      	str	r5, [sp, #48]	; 0x30
  GPIO_InitStruct.Pull = GPIO_NOPULL;
 8000cea:	940d      	str	r4, [sp, #52]	; 0x34
  GPIO_InitStruct.Speed = GPIO_SPEED_FREQ_VERY_HIGH;
 8000cec:	960e      	str	r6, [sp, #56]	; 0x38
  GPIO_InitStruct.Alternate = GPIO_AF10_QUADSPI;
 8000cee:	f8cd 803c 	str.w	r8, [sp, #60]	; 0x3c
  HAL_GPIO_Init(QSPI_NCS_GPIO_Port, &GPIO_InitStruct);
 8000cf2:	a90b      	add	r1, sp, #44	; 0x2c
 8000cf4:	482d      	ldr	r0, [pc, #180]	; (8000dac <MX_GPIO_Init+0x2d4>)
 8000cf6:	f000 ffa3 	bl	8001c40 <HAL_GPIO_Init>
  GPIO_InitStruct.Pin = OTG_FS_VBUS_Pin;
 8000cfa:	f44f 5380 	mov.w	r3, #4096	; 0x1000
 8000cfe:	930b      	str	r3, [sp, #44]	; 0x2c
  GPIO_InitStruct.Mode = GPIO_MODE_INPUT;
 8000d00:	940c      	str	r4, [sp, #48]	; 0x30
  GPIO_InitStruct.Pull = GPIO_NOPULL;
 8000d02:	940d      	str	r4, [sp, #52]	; 0x34
  HAL_GPIO_Init(OTG_FS_VBUS_GPIO_Port, &GPIO_InitStruct);
 8000d04:	a90b      	add	r1, sp, #44	; 0x2c
 8000d06:	482b      	ldr	r0, [pc, #172]	; (8000db4 <MX_GPIO_Init+0x2dc>)
 8000d08:	f000 ff9a 	bl	8001c40 <HAL_GPIO_Init>
  GPIO_InitStruct.Pin = Audio_INT_Pin;
 8000d0c:	2340      	movs	r3, #64	; 0x40
 8000d0e:	930b      	str	r3, [sp, #44]	; 0x2c
  GPIO_InitStruct.Mode = GPIO_MODE_EVT_RISING;
 8000d10:	4b29      	ldr	r3, [pc, #164]	; (8000db8 <MX_GPIO_Init+0x2e0>)
 8000d12:	930c      	str	r3, [sp, #48]	; 0x30
  GPIO_InitStruct.Pull = GPIO_NOPULL;
 8000d14:	940d      	str	r4, [sp, #52]	; 0x34
  HAL_GPIO_Init(Audio_INT_GPIO_Port, &GPIO_InitStruct);
 8000d16:	a90b      	add	r1, sp, #44	; 0x2c
 8000d18:	481e      	ldr	r0, [pc, #120]	; (8000d94 <MX_GPIO_Init+0x2bc>)
 8000d1a:	f000 ff91 	bl	8001c40 <HAL_GPIO_Init>
  GPIO_InitStruct.Pin = OTG_FS_P_Pin|OTG_FS_N_Pin|OTG_FS_ID_Pin;
 8000d1e:	f44f 53e0 	mov.w	r3, #7168	; 0x1c00
 8000d22:	930b      	str	r3, [sp, #44]	; 0x2c
  GPIO_InitStruct.Mode = GPIO_MODE_AF_PP;
 8000d24:	950c      	str	r5, [sp, #48]	; 0x30
  GPIO_InitStruct.Pull = GPIO_NOPULL;
 8000d26:	940d      	str	r4, [sp, #52]	; 0x34
  GPIO_InitStruct.Speed = GPIO_SPEED_FREQ_VERY_HIGH;
 8000d28:	960e      	str	r6, [sp, #56]	; 0x38
  GPIO_InitStruct.Alternate = GPIO_AF10_OTG_FS;
 8000d2a:	f8cd 803c 	str.w	r8, [sp, #60]	; 0x3c
  HAL_GPIO_Init(GPIOA, &GPIO_InitStruct);
 8000d2e:	a90b      	add	r1, sp, #44	; 0x2c
 8000d30:	481f      	ldr	r0, [pc, #124]	; (8000db0 <MX_GPIO_Init+0x2d8>)
 8000d32:	f000 ff85 	bl	8001c40 <HAL_GPIO_Init>
  GPIO_InitStruct.Pin = SAI2_MCLKA_Pin|SAI2_SCKA_Pin|SAI2_FSA_Pin|SAI2_SDA_Pin;
 8000d36:	23f0      	movs	r3, #240	; 0xf0
 8000d38:	930b      	str	r3, [sp, #44]	; 0x2c
  GPIO_InitStruct.Mode = GPIO_MODE_AF_PP;
 8000d3a:	950c      	str	r5, [sp, #48]	; 0x30
  GPIO_InitStruct.Pull = GPIO_NOPULL;
 8000d3c:	940d      	str	r4, [sp, #52]	; 0x34
  GPIO_InitStruct.Speed = GPIO_SPEED_FREQ_LOW;
 8000d3e:	940e      	str	r4, [sp, #56]	; 0x38
  GPIO_InitStruct.Alternate = GPIO_AF10_SAI2;
 8000d40:	f8cd 803c 	str.w	r8, [sp, #60]	; 0x3c
  HAL_GPIO_Init(GPIOI, &GPIO_InitStruct);
 8000d44:	a90b      	add	r1, sp, #44	; 0x2c
 8000d46:	4814      	ldr	r0, [pc, #80]	; (8000d98 <MX_GPIO_Init+0x2c0>)
 8000d48:	f000 ff7a 	bl	8001c40 <HAL_GPIO_Init>
  GPIO_InitStruct.Pin = SAI2_SDB_Pin;
 8000d4c:	f44f 6380 	mov.w	r3, #1024	; 0x400
 8000d50:	930b      	str	r3, [sp, #44]	; 0x2c
  GPIO_InitStruct.Mode = GPIO_MODE_AF_PP;
 8000d52:	950c      	str	r5, [sp, #48]	; 0x30
  GPIO_InitStruct.Pull = GPIO_NOPULL;
 8000d54:	940d      	str	r4, [sp, #52]	; 0x34
  GPIO_InitStruct.Speed = GPIO_SPEED_FREQ_LOW;
 8000d56:	940e      	str	r4, [sp, #56]	; 0x38
  GPIO_InitStruct.Alternate = GPIO_AF10_SAI2;
 8000d58:	f8cd 803c 	str.w	r8, [sp, #60]	; 0x3c
  HAL_GPIO_Init(SAI2_SDB_GPIO_Port, &GPIO_InitStruct);
 8000d5c:	a90b      	add	r1, sp, #44	; 0x2c
 8000d5e:	4811      	ldr	r0, [pc, #68]	; (8000da4 <MX_GPIO_Init+0x2cc>)
 8000d60:	f000 ff6e 	bl	8001c40 <HAL_GPIO_Init>
  GPIO_InitStruct.Pin = OTG_FS_PowerSwitchOn_Pin;
 8000d64:	2320      	movs	r3, #32
 8000d66:	930b      	str	r3, [sp, #44]	; 0x2c
  GPIO_InitStruct.Mode = GPIO_MODE_OUTPUT_PP;
 8000d68:	970c      	str	r7, [sp, #48]	; 0x30
  GPIO_InitStruct.Pull = GPIO_NOPULL;
 8000d6a:	940d      	str	r4, [sp, #52]	; 0x34
  GPIO_InitStruct.Speed = GPIO_SPEED_FREQ_LOW;
 8000d6c:	940e      	str	r4, [sp, #56]	; 0x38
  HAL_GPIO_Init(OTG_FS_PowerSwitchOn_GPIO_Port, &GPIO_InitStruct);
 8000d6e:	a90b      	add	r1, sp, #44	; 0x2c
 8000d70:	4808      	ldr	r0, [pc, #32]	; (8000d94 <MX_GPIO_Init+0x2bc>)
 8000d72:	f000 ff65 	bl	8001c40 <HAL_GPIO_Init>
  GPIO_InitStruct.Pin = DCMI_D5_Pin;
 8000d76:	f8cd b02c 	str.w	fp, [sp, #44]	; 0x2c
  GPIO_InitStruct.Mode = GPIO_MODE_AF_PP;
 8000d7a:	950c      	str	r5, [sp, #48]	; 0x30
  GPIO_InitStruct.Pull = GPIO_NOPULL;
 8000d7c:	940d      	str	r4, [sp, #52]	; 0x34
  GPIO_InitStruct.Speed = GPIO_SPEED_FREQ_LOW;
 8000d7e:	940e      	str	r4, [sp, #56]	; 0x38
  GPIO_InitStruct.Alternate = GPIO_AF13_DCMI;
 8000d80:	f8cd 903c 	str.w	r9, [sp, #60]	; 0x3c
  HAL_GPIO_Init(DCMI_D5_GPIO_Port, &GPIO_InitStruct);
 8000d84:	a90b      	add	r1, sp, #44	; 0x2c
 8000d86:	4803      	ldr	r0, [pc, #12]	; (8000d94 <MX_GPIO_Init+0x2bc>)
 8000d88:	f000 ff5a 	bl	8001c40 <HAL_GPIO_Init>
 8000d8c:	e016      	b.n	8000dbc <MX_GPIO_Init+0x2e4>
 8000d8e:	bf00      	nop
 8000d90:	40023800 	.word	0x40023800
 8000d94:	40020c00 	.word	0x40020c00
 8000d98:	40022000 	.word	0x40022000
 8000d9c:	40022800 	.word	0x40022800
 8000da0:	40021c00 	.word	0x40021c00
 8000da4:	40021800 	.word	0x40021800
 8000da8:	40021000 	.word	0x40021000
 8000dac:	40020400 	.word	0x40020400
 8000db0:	40020000 	.word	0x40020000
 8000db4:	40022400 	.word	0x40022400
 8000db8:	10120000 	.word	0x10120000
  GPIO_InitStruct.Pin = ARDUINO_D7_Pin|ARDUINO_D8_Pin|LCD_DISP_Pin;
 8000dbc:	f241 030c 	movw	r3, #4108	; 0x100c
 8000dc0:	930b      	str	r3, [sp, #44]	; 0x2c
  GPIO_InitStruct.Mode = GPIO_MODE_OUTPUT_PP;
 8000dc2:	970c      	str	r7, [sp, #48]	; 0x30
  GPIO_InitStruct.Pull = GPIO_NOPULL;
 8000dc4:	940d      	str	r4, [sp, #52]	; 0x34
  GPIO_InitStruct.Speed = GPIO_SPEED_FREQ_LOW;
 8000dc6:	940e      	str	r4, [sp, #56]	; 0x38
  HAL_GPIO_Init(GPIOI, &GPIO_InitStruct);
 8000dc8:	a90b      	add	r1, sp, #44	; 0x2c
 8000dca:	488d      	ldr	r0, [pc, #564]	; (8001000 <MX_GPIO_Init+0x528>)
 8000dcc:	f000 ff38 	bl	8001c40 <HAL_GPIO_Init>
  GPIO_InitStruct.Pin = uSD_Detect_Pin;
 8000dd0:	f44f 5a00 	mov.w	sl, #8192	; 0x2000
 8000dd4:	f8cd a02c 	str.w	sl, [sp, #44]	; 0x2c
  GPIO_InitStruct.Mode = GPIO_MODE_INPUT;
 8000dd8:	940c      	str	r4, [sp, #48]	; 0x30
  GPIO_InitStruct.Pull = GPIO_NOPULL;
 8000dda:	940d      	str	r4, [sp, #52]	; 0x34
  HAL_GPIO_Init(uSD_Detect_GPIO_Port, &GPIO_InitStruct);
 8000ddc:	a90b      	add	r1, sp, #44	; 0x2c
 8000dde:	4889      	ldr	r0, [pc, #548]	; (8001004 <MX_GPIO_Init+0x52c>)
 8000de0:	f000 ff2e 	bl	8001c40 <HAL_GPIO_Init>
  GPIO_InitStruct.Pin = LCD_BL_CTRL_Pin;
 8000de4:	f8cd b02c 	str.w	fp, [sp, #44]	; 0x2c
  GPIO_InitStruct.Mode = GPIO_MODE_OUTPUT_PP;
 8000de8:	970c      	str	r7, [sp, #48]	; 0x30
  GPIO_InitStruct.Pull = GPIO_NOPULL;
 8000dea:	940d      	str	r4, [sp, #52]	; 0x34
  GPIO_InitStruct.Speed = GPIO_SPEED_FREQ_LOW;
 8000dec:	940e      	str	r4, [sp, #56]	; 0x38
  HAL_GPIO_Init(LCD_BL_CTRL_GPIO_Port, &GPIO_InitStruct);
 8000dee:	a90b      	add	r1, sp, #44	; 0x2c
 8000df0:	4885      	ldr	r0, [pc, #532]	; (8001008 <MX_GPIO_Init+0x530>)
 8000df2:	f000 ff25 	bl	8001c40 <HAL_GPIO_Init>
  GPIO_InitStruct.Pin = DCMI_VSYNC_Pin;
 8000df6:	f44f 7200 	mov.w	r2, #512	; 0x200
 8000dfa:	920b      	str	r2, [sp, #44]	; 0x2c
  GPIO_InitStruct.Mode = GPIO_MODE_AF_PP;
 8000dfc:	950c      	str	r5, [sp, #48]	; 0x30
  GPIO_InitStruct.Pull = GPIO_NOPULL;
 8000dfe:	940d      	str	r4, [sp, #52]	; 0x34
  GPIO_InitStruct.Speed = GPIO_SPEED_FREQ_LOW;
 8000e00:	940e      	str	r4, [sp, #56]	; 0x38
  GPIO_InitStruct.Alternate = GPIO_AF13_DCMI;
 8000e02:	f8cd 903c 	str.w	r9, [sp, #60]	; 0x3c
  HAL_GPIO_Init(DCMI_VSYNC_GPIO_Port, &GPIO_InitStruct);
 8000e06:	a90b      	add	r1, sp, #44	; 0x2c
 8000e08:	4880      	ldr	r0, [pc, #512]	; (800100c <MX_GPIO_Init+0x534>)
 8000e0a:	f000 ff19 	bl	8001c40 <HAL_GPIO_Init>
  GPIO_InitStruct.Pin = OTG_FS_OverCurrent_Pin;
 8000e0e:	2210      	movs	r2, #16
 8000e10:	920b      	str	r2, [sp, #44]	; 0x2c
  GPIO_InitStruct.Mode = GPIO_MODE_INPUT;
 8000e12:	940c      	str	r4, [sp, #48]	; 0x30
  GPIO_InitStruct.Pull = GPIO_NOPULL;
 8000e14:	940d      	str	r4, [sp, #52]	; 0x34
  HAL_GPIO_Init(OTG_FS_OverCurrent_GPIO_Port, &GPIO_InitStruct);
 8000e16:	a90b      	add	r1, sp, #44	; 0x2c
 8000e18:	487d      	ldr	r0, [pc, #500]	; (8001010 <MX_GPIO_Init+0x538>)
 8000e1a:	f000 ff11 	bl	8001c40 <HAL_GPIO_Init>
  GPIO_InitStruct.Pin = TP3_Pin|NC2_Pin;
 8000e1e:	f248 0304 	movw	r3, #32772	; 0x8004
 8000e22:	930b      	str	r3, [sp, #44]	; 0x2c
  GPIO_InitStruct.Mode = GPIO_MODE_INPUT;
 8000e24:	940c      	str	r4, [sp, #48]	; 0x30
  GPIO_InitStruct.Pull = GPIO_NOPULL;
 8000e26:	940d      	str	r4, [sp, #52]	; 0x34
  HAL_GPIO_Init(GPIOH, &GPIO_InitStruct);
 8000e28:	a90b      	add	r1, sp, #44	; 0x2c
 8000e2a:	487a      	ldr	r0, [pc, #488]	; (8001014 <MX_GPIO_Init+0x53c>)
 8000e2c:	f000 ff08 	bl	8001c40 <HAL_GPIO_Init>
  GPIO_InitStruct.Pin = ARDUINO_SCK_D13_Pin;
 8000e30:	950b      	str	r5, [sp, #44]	; 0x2c
  GPIO_InitStruct.Mode = GPIO_MODE_AF_PP;
 8000e32:	950c      	str	r5, [sp, #48]	; 0x30
  GPIO_InitStruct.Pull = GPIO_NOPULL;
 8000e34:	940d      	str	r4, [sp, #52]	; 0x34
  GPIO_InitStruct.Speed = GPIO_SPEED_FREQ_LOW;
 8000e36:	940e      	str	r4, [sp, #56]	; 0x38
  GPIO_InitStruct.Alternate = GPIO_AF5_SPI2;
 8000e38:	2205      	movs	r2, #5
 8000e3a:	920f      	str	r2, [sp, #60]	; 0x3c
  HAL_GPIO_Init(ARDUINO_SCK_D13_GPIO_Port, &GPIO_InitStruct);
 8000e3c:	a90b      	add	r1, sp, #44	; 0x2c
 8000e3e:	4870      	ldr	r0, [pc, #448]	; (8001000 <MX_GPIO_Init+0x528>)
 8000e40:	f000 fefe 	bl	8001c40 <HAL_GPIO_Init>
  GPIO_InitStruct.Pin = DCMI_PWR_EN_Pin;
 8000e44:	f8cd a02c 	str.w	sl, [sp, #44]	; 0x2c
  GPIO_InitStruct.Mode = GPIO_MODE_OUTPUT_PP;
 8000e48:	970c      	str	r7, [sp, #48]	; 0x30
  GPIO_InitStruct.Pull = GPIO_NOPULL;
 8000e4a:	940d      	str	r4, [sp, #52]	; 0x34
  GPIO_InitStruct.Speed = GPIO_SPEED_FREQ_LOW;
 8000e4c:	940e      	str	r4, [sp, #56]	; 0x38
  HAL_GPIO_Init(DCMI_PWR_EN_GPIO_Port, &GPIO_InitStruct);
 8000e4e:	a90b      	add	r1, sp, #44	; 0x2c
 8000e50:	4870      	ldr	r0, [pc, #448]	; (8001014 <MX_GPIO_Init+0x53c>)
 8000e52:	f000 fef5 	bl	8001c40 <HAL_GPIO_Init>
  GPIO_InitStruct.Pin = DCMI_D4_Pin|DCMI_D3_Pin|DCMI_D0_Pin|DCMI_D2_Pin
 8000e56:	f44f 43bc 	mov.w	r3, #24064	; 0x5e00
 8000e5a:	930b      	str	r3, [sp, #44]	; 0x2c
  GPIO_InitStruct.Mode = GPIO_MODE_AF_PP;
 8000e5c:	950c      	str	r5, [sp, #48]	; 0x30
  GPIO_InitStruct.Pull = GPIO_NOPULL;
 8000e5e:	940d      	str	r4, [sp, #52]	; 0x34
  GPIO_InitStruct.Speed = GPIO_SPEED_FREQ_LOW;
 8000e60:	940e      	str	r4, [sp, #56]	; 0x38
  GPIO_InitStruct.Alternate = GPIO_AF13_DCMI;
 8000e62:	f8cd 903c 	str.w	r9, [sp, #60]	; 0x3c
  HAL_GPIO_Init(GPIOH, &GPIO_InitStruct);
 8000e66:	a90b      	add	r1, sp, #44	; 0x2c
 8000e68:	486a      	ldr	r0, [pc, #424]	; (8001014 <MX_GPIO_Init+0x53c>)
 8000e6a:	f000 fee9 	bl	8001c40 <HAL_GPIO_Init>
  GPIO_InitStruct.Pin = ARDUINO_PWM_CS_D5_Pin;
 8000e6e:	970b      	str	r7, [sp, #44]	; 0x2c
  GPIO_InitStruct.Mode = GPIO_MODE_AF_PP;
 8000e70:	950c      	str	r5, [sp, #48]	; 0x30
  GPIO_InitStruct.Pull = GPIO_NOPULL;
 8000e72:	940d      	str	r4, [sp, #52]	; 0x34
  GPIO_InitStruct.Speed = GPIO_SPEED_FREQ_LOW;
 8000e74:	940e      	str	r4, [sp, #56]	; 0x38
  GPIO_InitStruct.Alternate = GPIO_AF2_TIM5;
 8000e76:	950f      	str	r5, [sp, #60]	; 0x3c
  HAL_GPIO_Init(ARDUINO_PWM_CS_D5_GPIO_Port, &GPIO_InitStruct);
 8000e78:	a90b      	add	r1, sp, #44	; 0x2c
 8000e7a:	4861      	ldr	r0, [pc, #388]	; (8001000 <MX_GPIO_Init+0x528>)
 8000e7c:	f000 fee0 	bl	8001c40 <HAL_GPIO_Init>
  GPIO_InitStruct.Pin = VCP_TX_Pin;
 8000e80:	f44f 7200 	mov.w	r2, #512	; 0x200
 8000e84:	920b      	str	r2, [sp, #44]	; 0x2c
  GPIO_InitStruct.Mode = GPIO_MODE_AF_PP;
 8000e86:	950c      	str	r5, [sp, #48]	; 0x30
  GPIO_InitStruct.Pull = GPIO_NOPULL;
 8000e88:	940d      	str	r4, [sp, #52]	; 0x34
  GPIO_InitStruct.Speed = GPIO_SPEED_FREQ_LOW;
 8000e8a:	940e      	str	r4, [sp, #56]	; 0x38
  GPIO_InitStruct.Alternate = GPIO_AF7_USART1;
 8000e8c:	2207      	movs	r2, #7
 8000e8e:	920f      	str	r2, [sp, #60]	; 0x3c
  HAL_GPIO_Init(VCP_TX_GPIO_Port, &GPIO_InitStruct);
 8000e90:	a90b      	add	r1, sp, #44	; 0x2c
 8000e92:	4861      	ldr	r0, [pc, #388]	; (8001018 <MX_GPIO_Init+0x540>)
 8000e94:	f000 fed4 	bl	8001c40 <HAL_GPIO_Init>
  GPIO_InitStruct.Pin = ARDUINO_PWM_D10_Pin;
 8000e98:	f44f 7380 	mov.w	r3, #256	; 0x100
 8000e9c:	930b      	str	r3, [sp, #44]	; 0x2c
  GPIO_InitStruct.Mode = GPIO_MODE_AF_PP;
 8000e9e:	950c      	str	r5, [sp, #48]	; 0x30
  GPIO_InitStruct.Pull = GPIO_NOPULL;
 8000ea0:	940d      	str	r4, [sp, #52]	; 0x34
  GPIO_InitStruct.Speed = GPIO_SPEED_FREQ_LOW;
 8000ea2:	940e      	str	r4, [sp, #56]	; 0x38
  GPIO_InitStruct.Alternate = GPIO_AF1_TIM1;
 8000ea4:	970f      	str	r7, [sp, #60]	; 0x3c
  HAL_GPIO_Init(ARDUINO_PWM_D10_GPIO_Port, &GPIO_InitStruct);
 8000ea6:	a90b      	add	r1, sp, #44	; 0x2c
 8000ea8:	485b      	ldr	r0, [pc, #364]	; (8001018 <MX_GPIO_Init+0x540>)
 8000eaa:	f000 fec9 	bl	8001c40 <HAL_GPIO_Init>
  GPIO_InitStruct.Pin = LCD_INT_Pin;
 8000eae:	f8cd a02c 	str.w	sl, [sp, #44]	; 0x2c
  GPIO_InitStruct.Mode = GPIO_MODE_EVT_RISING;
 8000eb2:	4b5a      	ldr	r3, [pc, #360]	; (800101c <MX_GPIO_Init+0x544>)
 8000eb4:	930c      	str	r3, [sp, #48]	; 0x30
  GPIO_InitStruct.Pull = GPIO_NOPULL;
 8000eb6:	940d      	str	r4, [sp, #52]	; 0x34
  HAL_GPIO_Init(LCD_INT_GPIO_Port, &GPIO_InitStruct);
 8000eb8:	a90b      	add	r1, sp, #44	; 0x2c
 8000eba:	4851      	ldr	r0, [pc, #324]	; (8001000 <MX_GPIO_Init+0x528>)
 8000ebc:	f000 fec0 	bl	8001c40 <HAL_GPIO_Init>
  GPIO_InitStruct.Pin = ARDUINO_RX_D0_Pin|ARDUINO_TX_D1_Pin;
 8000ec0:	23c0      	movs	r3, #192	; 0xc0
 8000ec2:	930b      	str	r3, [sp, #44]	; 0x2c
  GPIO_InitStruct.Mode = GPIO_MODE_AF_PP;
 8000ec4:	950c      	str	r5, [sp, #48]	; 0x30
  GPIO_InitStruct.Pull = GPIO_NOPULL;
 8000ec6:	940d      	str	r4, [sp, #52]	; 0x34
  GPIO_InitStruct.Speed = GPIO_SPEED_FREQ_VERY_HIGH;
 8000ec8:	960e      	str	r6, [sp, #56]	; 0x38
  GPIO_InitStruct.Alternate = GPIO_AF8_USART6;
 8000eca:	f8cd b03c 	str.w	fp, [sp, #60]	; 0x3c
  HAL_GPIO_Init(GPIOC, &GPIO_InitStruct);
 8000ece:	a90b      	add	r1, sp, #44	; 0x2c
 8000ed0:	484c      	ldr	r0, [pc, #304]	; (8001004 <MX_GPIO_Init+0x52c>)
 8000ed2:	f000 feb5 	bl	8001c40 <HAL_GPIO_Init>
  GPIO_InitStruct.Pin = ULPI_NXT_Pin;
 8000ed6:	2310      	movs	r3, #16
 8000ed8:	930b      	str	r3, [sp, #44]	; 0x2c
  GPIO_InitStruct.Mode = GPIO_MODE_AF_PP;
 8000eda:	950c      	str	r5, [sp, #48]	; 0x30
  GPIO_InitStruct.Pull = GPIO_NOPULL;
 8000edc:	940d      	str	r4, [sp, #52]	; 0x34
  GPIO_InitStruct.Speed = GPIO_SPEED_FREQ_VERY_HIGH;
 8000ede:	960e      	str	r6, [sp, #56]	; 0x38
  GPIO_InitStruct.Alternate = GPIO_AF10_OTG_HS;
 8000ee0:	f8cd 803c 	str.w	r8, [sp, #60]	; 0x3c
  HAL_GPIO_Init(ULPI_NXT_GPIO_Port, &GPIO_InitStruct);
 8000ee4:	a90b      	add	r1, sp, #44	; 0x2c
 8000ee6:	484b      	ldr	r0, [pc, #300]	; (8001014 <MX_GPIO_Init+0x53c>)
 8000ee8:	f000 feaa 	bl	8001c40 <HAL_GPIO_Init>
  GPIO_InitStruct.Pin = ARDUINO_D4_Pin|ARDUINO_D2_Pin|EXT_RST_Pin;
 8000eec:	23c8      	movs	r3, #200	; 0xc8
 8000eee:	930b      	str	r3, [sp, #44]	; 0x2c
  GPIO_InitStruct.Mode = GPIO_MODE_OUTPUT_PP;
 8000ef0:	970c      	str	r7, [sp, #48]	; 0x30
  GPIO_InitStruct.Pull = GPIO_NOPULL;
 8000ef2:	940d      	str	r4, [sp, #52]	; 0x34
  GPIO_InitStruct.Speed = GPIO_SPEED_FREQ_LOW;
 8000ef4:	940e      	str	r4, [sp, #56]	; 0x38
  HAL_GPIO_Init(GPIOG, &GPIO_InitStruct);
 8000ef6:	a90b      	add	r1, sp, #44	; 0x2c
 8000ef8:	4844      	ldr	r0, [pc, #272]	; (800100c <MX_GPIO_Init+0x534>)
 8000efa:	f000 fea1 	bl	8001c40 <HAL_GPIO_Init>
  GPIO_InitStruct.Pin = ARDUINO_A4_Pin|ARDUINO_A5_Pin|ARDUINO_A1_Pin|ARDUINO_A2_Pin
 8000efe:	f44f 63f8 	mov.w	r3, #1984	; 0x7c0
 8000f02:	930b      	str	r3, [sp, #44]	; 0x2c
  GPIO_InitStruct.Mode = GPIO_MODE_ANALOG;
 8000f04:	960c      	str	r6, [sp, #48]	; 0x30
  GPIO_InitStruct.Pull = GPIO_NOPULL;
 8000f06:	940d      	str	r4, [sp, #52]	; 0x34
  HAL_GPIO_Init(GPIOF, &GPIO_InitStruct);
 8000f08:	a90b      	add	r1, sp, #44	; 0x2c
 8000f0a:	4845      	ldr	r0, [pc, #276]	; (8001020 <MX_GPIO_Init+0x548>)
 8000f0c:	f000 fe98 	bl	8001c40 <HAL_GPIO_Init>
  GPIO_InitStruct.Pin = ULPI_STP_Pin|ULPI_DIR_Pin;
 8000f10:	2305      	movs	r3, #5
 8000f12:	930b      	str	r3, [sp, #44]	; 0x2c
  GPIO_InitStruct.Mode = GPIO_MODE_AF_PP;
 8000f14:	950c      	str	r5, [sp, #48]	; 0x30
  GPIO_InitStruct.Pull = GPIO_NOPULL;
 8000f16:	940d      	str	r4, [sp, #52]	; 0x34
  GPIO_InitStruct.Speed = GPIO_SPEED_FREQ_VERY_HIGH;
 8000f18:	960e      	str	r6, [sp, #56]	; 0x38
  GPIO_InitStruct.Alternate = GPIO_AF10_OTG_HS;
 8000f1a:	f8cd 803c 	str.w	r8, [sp, #60]	; 0x3c
  HAL_GPIO_Init(GPIOC, &GPIO_InitStruct);
 8000f1e:	a90b      	add	r1, sp, #44	; 0x2c
 8000f20:	4838      	ldr	r0, [pc, #224]	; (8001004 <MX_GPIO_Init+0x52c>)
 8000f22:	f000 fe8d 	bl	8001c40 <HAL_GPIO_Init>
  GPIO_InitStruct.Pin = RMII_MDC_Pin|RMII_RXD0_Pin|RMII_RXD1_Pin;
 8000f26:	2332      	movs	r3, #50	; 0x32
 8000f28:	930b      	str	r3, [sp, #44]	; 0x2c
  GPIO_InitStruct.Mode = GPIO_MODE_AF_PP;
 8000f2a:	950c      	str	r5, [sp, #48]	; 0x30
  GPIO_InitStruct.Pull = GPIO_NOPULL;
 8000f2c:	940d      	str	r4, [sp, #52]	; 0x34
  GPIO_InitStruct.Speed = GPIO_SPEED_FREQ_VERY_HIGH;
 8000f2e:	960e      	str	r6, [sp, #56]	; 0x38
  GPIO_InitStruct.Alternate = GPIO_AF11_ETH;
 8000f30:	230b      	movs	r3, #11
 8000f32:	930f      	str	r3, [sp, #60]	; 0x3c
  HAL_GPIO_Init(GPIOC, &GPIO_InitStruct);
 8000f34:	a90b      	add	r1, sp, #44	; 0x2c
 8000f36:	4833      	ldr	r0, [pc, #204]	; (8001004 <MX_GPIO_Init+0x52c>)
 8000f38:	f000 fe82 	bl	8001c40 <HAL_GPIO_Init>
  GPIO_InitStruct.Pin = GPIO_PIN_2;
 8000f3c:	2304      	movs	r3, #4
 8000f3e:	930b      	str	r3, [sp, #44]	; 0x2c
  GPIO_InitStruct.Mode = GPIO_MODE_AF_PP;
 8000f40:	950c      	str	r5, [sp, #48]	; 0x30
  GPIO_InitStruct.Pull = GPIO_NOPULL;
 8000f42:	940d      	str	r4, [sp, #52]	; 0x34
  GPIO_InitStruct.Speed = GPIO_SPEED_FREQ_VERY_HIGH;
 8000f44:	960e      	str	r6, [sp, #56]	; 0x38
  GPIO_InitStruct.Alternate = GPIO_AF9_QUADSPI;
 8000f46:	2309      	movs	r3, #9
 8000f48:	930f      	str	r3, [sp, #60]	; 0x3c
  HAL_GPIO_Init(GPIOB, &GPIO_InitStruct);
 8000f4a:	a90b      	add	r1, sp, #44	; 0x2c
 8000f4c:	4835      	ldr	r0, [pc, #212]	; (8001024 <MX_GPIO_Init+0x54c>)
 8000f4e:	f000 fe77 	bl	8001c40 <HAL_GPIO_Init>
  GPIO_InitStruct.Pin = QSPI_D1_Pin|QSPI_D3_Pin|QSPI_D0_Pin;
 8000f52:	f44f 5360 	mov.w	r3, #14336	; 0x3800
 8000f56:	930b      	str	r3, [sp, #44]	; 0x2c
  GPIO_InitStruct.Mode = GPIO_MODE_AF_PP;
 8000f58:	950c      	str	r5, [sp, #48]	; 0x30
  GPIO_InitStruct.Pull = GPIO_NOPULL;
 8000f5a:	940d      	str	r4, [sp, #52]	; 0x34
  GPIO_InitStruct.Speed = GPIO_SPEED_FREQ_VERY_HIGH;
 8000f5c:	960e      	str	r6, [sp, #56]	; 0x38
  GPIO_InitStruct.Alternate = GPIO_AF9_QUADSPI;
 8000f5e:	2309      	movs	r3, #9
 8000f60:	930f      	str	r3, [sp, #60]	; 0x3c
  HAL_GPIO_Init(GPIOD, &GPIO_InitStruct);
 8000f62:	a90b      	add	r1, sp, #44	; 0x2c
 8000f64:	482a      	ldr	r0, [pc, #168]	; (8001010 <MX_GPIO_Init+0x538>)
 8000f66:	f000 fe6b 	bl	8001c40 <HAL_GPIO_Init>
  GPIO_InitStruct.Pin = RMII_RXER_Pin;
 8000f6a:	2304      	movs	r3, #4
 8000f6c:	930b      	str	r3, [sp, #44]	; 0x2c
  GPIO_InitStruct.Mode = GPIO_MODE_INPUT;
 8000f6e:	940c      	str	r4, [sp, #48]	; 0x30
  GPIO_InitStruct.Pull = GPIO_NOPULL;
 8000f70:	940d      	str	r4, [sp, #52]	; 0x34
  HAL_GPIO_Init(RMII_RXER_GPIO_Port, &GPIO_InitStruct);
 8000f72:	a90b      	add	r1, sp, #44	; 0x2c
 8000f74:	4825      	ldr	r0, [pc, #148]	; (800100c <MX_GPIO_Init+0x534>)
 8000f76:	f000 fe63 	bl	8001c40 <HAL_GPIO_Init>
  GPIO_InitStruct.Pin = RMII_REF_CLK_Pin|RMII_MDIO_Pin|RMII_CRS_DV_Pin;
 8000f7a:	2386      	movs	r3, #134	; 0x86
 8000f7c:	930b      	str	r3, [sp, #44]	; 0x2c
  GPIO_InitStruct.Mode = GPIO_MODE_AF_PP;
 8000f7e:	950c      	str	r5, [sp, #48]	; 0x30
  GPIO_InitStruct.Pull = GPIO_NOPULL;
 8000f80:	940d      	str	r4, [sp, #52]	; 0x34
  GPIO_InitStruct.Speed = GPIO_SPEED_FREQ_VERY_HIGH;
 8000f82:	960e      	str	r6, [sp, #56]	; 0x38
  GPIO_InitStruct.Alternate = GPIO_AF11_ETH;
 8000f84:	230b      	movs	r3, #11
 8000f86:	930f      	str	r3, [sp, #60]	; 0x3c
  HAL_GPIO_Init(GPIOA, &GPIO_InitStruct);
 8000f88:	a90b      	add	r1, sp, #44	; 0x2c
 8000f8a:	4823      	ldr	r0, [pc, #140]	; (8001018 <MX_GPIO_Init+0x540>)
 8000f8c:	f000 fe58 	bl	8001c40 <HAL_GPIO_Init>
  GPIO_InitStruct.Pin = ARDUINO_A0_Pin;
 8000f90:	970b      	str	r7, [sp, #44]	; 0x2c
  GPIO_InitStruct.Mode = GPIO_MODE_ANALOG;
 8000f92:	960c      	str	r6, [sp, #48]	; 0x30
  GPIO_InitStruct.Pull = GPIO_NOPULL;
 8000f94:	940d      	str	r4, [sp, #52]	; 0x34
  HAL_GPIO_Init(ARDUINO_A0_GPIO_Port, &GPIO_InitStruct);
 8000f96:	a90b      	add	r1, sp, #44	; 0x2c
 8000f98:	481f      	ldr	r0, [pc, #124]	; (8001018 <MX_GPIO_Init+0x540>)
 8000f9a:	f000 fe51 	bl	8001c40 <HAL_GPIO_Init>
  GPIO_InitStruct.Pin = DCMI_HSYNC_Pin|GPIO_PIN_6;
 8000f9e:	2350      	movs	r3, #80	; 0x50
 8000fa0:	930b      	str	r3, [sp, #44]	; 0x2c
  GPIO_InitStruct.Mode = GPIO_MODE_AF_PP;
 8000fa2:	950c      	str	r5, [sp, #48]	; 0x30
  GPIO_InitStruct.Pull = GPIO_NOPULL;
 8000fa4:	940d      	str	r4, [sp, #52]	; 0x34
  GPIO_InitStruct.Speed = GPIO_SPEED_FREQ_LOW;
 8000fa6:	940e      	str	r4, [sp, #56]	; 0x38
  GPIO_InitStruct.Alternate = GPIO_AF13_DCMI;
 8000fa8:	f8cd 903c 	str.w	r9, [sp, #60]	; 0x3c
  HAL_GPIO_Init(GPIOA, &GPIO_InitStruct);
 8000fac:	a90b      	add	r1, sp, #44	; 0x2c
 8000fae:	481a      	ldr	r0, [pc, #104]	; (8001018 <MX_GPIO_Init+0x540>)
 8000fb0:	f000 fe46 	bl	8001c40 <HAL_GPIO_Init>
  GPIO_InitStruct.Pin = ULPI_CLK_Pin|ULPI_D0_Pin;
 8000fb4:	2328      	movs	r3, #40	; 0x28
 8000fb6:	930b      	str	r3, [sp, #44]	; 0x2c
  GPIO_InitStruct.Mode = GPIO_MODE_AF_PP;
 8000fb8:	950c      	str	r5, [sp, #48]	; 0x30
  GPIO_InitStruct.Pull = GPIO_NOPULL;
 8000fba:	940d      	str	r4, [sp, #52]	; 0x34
  GPIO_InitStruct.Speed = GPIO_SPEED_FREQ_VERY_HIGH;
 8000fbc:	960e      	str	r6, [sp, #56]	; 0x38
  GPIO_InitStruct.Alternate = GPIO_AF10_OTG_HS;
 8000fbe:	f8cd 803c 	str.w	r8, [sp, #60]	; 0x3c
  HAL_GPIO_Init(GPIOA, &GPIO_InitStruct);
 8000fc2:	a90b      	add	r1, sp, #44	; 0x2c
 8000fc4:	4814      	ldr	r0, [pc, #80]	; (8001018 <MX_GPIO_Init+0x540>)
 8000fc6:	f000 fe3b 	bl	8001c40 <HAL_GPIO_Init>
  GPIO_InitStruct.Pin = ARDUINO_PWM_D6_Pin;
 8000fca:	2340      	movs	r3, #64	; 0x40
 8000fcc:	930b      	str	r3, [sp, #44]	; 0x2c
  GPIO_InitStruct.Mode = GPIO_MODE_AF_PP;
 8000fce:	950c      	str	r5, [sp, #48]	; 0x30
  GPIO_InitStruct.Pull = GPIO_NOPULL;
 8000fd0:	940d      	str	r4, [sp, #52]	; 0x34
  GPIO_InitStruct.Speed = GPIO_SPEED_FREQ_LOW;
 8000fd2:	940e      	str	r4, [sp, #56]	; 0x38
  GPIO_InitStruct.Alternate = GPIO_AF9_TIM12;
 8000fd4:	2309      	movs	r3, #9
 8000fd6:	930f      	str	r3, [sp, #60]	; 0x3c
  HAL_GPIO_Init(ARDUINO_PWM_D6_GPIO_Port, &GPIO_InitStruct);
 8000fd8:	a90b      	add	r1, sp, #44	; 0x2c
 8000fda:	480e      	ldr	r0, [pc, #56]	; (8001014 <MX_GPIO_Init+0x53c>)
 8000fdc:	f000 fe30 	bl	8001c40 <HAL_GPIO_Init>
  GPIO_InitStruct.Pin = ARDUINO_MISO_D12_Pin|ARDUINO_MOSI_PWM_D11_Pin;
 8000fe0:	f44f 4340 	mov.w	r3, #49152	; 0xc000
 8000fe4:	930b      	str	r3, [sp, #44]	; 0x2c
  GPIO_InitStruct.Mode = GPIO_MODE_AF_PP;
 8000fe6:	950c      	str	r5, [sp, #48]	; 0x30
  GPIO_InitStruct.Pull = GPIO_NOPULL;
 8000fe8:	940d      	str	r4, [sp, #52]	; 0x34
  GPIO_InitStruct.Speed = GPIO_SPEED_FREQ_LOW;
 8000fea:	940e      	str	r4, [sp, #56]	; 0x38
  GPIO_InitStruct.Alternate = GPIO_AF5_SPI2;
 8000fec:	2305      	movs	r3, #5
 8000fee:	930f      	str	r3, [sp, #60]	; 0x3c
  HAL_GPIO_Init(GPIOB, &GPIO_InitStruct);
 8000ff0:	a90b      	add	r1, sp, #44	; 0x2c
 8000ff2:	480c      	ldr	r0, [pc, #48]	; (8001024 <MX_GPIO_Init+0x54c>)
 8000ff4:	f000 fe24 	bl	8001c40 <HAL_GPIO_Init>
}
 8000ff8:	b011      	add	sp, #68	; 0x44
 8000ffa:	e8bd 8ff0 	ldmia.w	sp!, {r4, r5, r6, r7, r8, r9, sl, fp, pc}
 8000ffe:	bf00      	nop
 8001000:	40022000 	.word	0x40022000
 8001004:	40020800 	.word	0x40020800
 8001008:	40022800 	.word	0x40022800
 800100c:	40021800 	.word	0x40021800
 8001010:	40020c00 	.word	0x40020c00
 8001014:	40021c00 	.word	0x40021c00
 8001018:	40020000 	.word	0x40020000
 800101c:	10120000 	.word	0x10120000
 8001020:	40021400 	.word	0x40021400
 8001024:	40020400 	.word	0x40020400

08001028 <HAL_TIM_PeriodElapsedCallback>:
  * a global variable "uwTick" used as application time base.
  * @param  htim : TIM handle
  * @retval None
  */
void HAL_TIM_PeriodElapsedCallback(TIM_HandleTypeDef *htim)
{
 8001028:	b508      	push	{r3, lr}
  /* USER CODE BEGIN Callback 0 */

  /* USER CODE END Callback 0 */
  if (htim->Instance == TIM6) {
 800102a:	6802      	ldr	r2, [r0, #0]
 800102c:	4b03      	ldr	r3, [pc, #12]	; (800103c <HAL_TIM_PeriodElapsedCallback+0x14>)
 800102e:	429a      	cmp	r2, r3
 8001030:	d000      	beq.n	8001034 <HAL_TIM_PeriodElapsedCallback+0xc>
    HAL_IncTick();
  }
  /* USER CODE BEGIN Callback 1 */

  /* USER CODE END Callback 1 */
}
 8001032:	bd08      	pop	{r3, pc}
    HAL_IncTick();
 8001034:	f000 fc10 	bl	8001858 <HAL_IncTick>
}
 8001038:	e7fb      	b.n	8001032 <HAL_TIM_PeriodElapsedCallback+0xa>
 800103a:	bf00      	nop
 800103c:	40001000 	.word	0x40001000

08001040 <Error_Handler>:
  \details Disables IRQ interrupts by setting the I-bit in the CPSR.
           Can only be executed in Privileged modes.
 */
__STATIC_FORCEINLINE void __disable_irq(void)
{
  __ASM volatile ("cpsid i" : : : "memory");
 8001040:	b672      	cpsid	i
 8001042:	e7fe      	b.n	8001042 <Error_Handler+0x2>

08001044 <MX_DMA2D_Init>:
{
 8001044:	b508      	push	{r3, lr}
  hdma2d.Instance = DMA2D;
 8001046:	480c      	ldr	r0, [pc, #48]	; (8001078 <MX_DMA2D_Init+0x34>)
 8001048:	4b0c      	ldr	r3, [pc, #48]	; (800107c <MX_DMA2D_Init+0x38>)
 800104a:	6003      	str	r3, [r0, #0]
  hdma2d.Init.Mode = DMA2D_M2M;
 800104c:	2300      	movs	r3, #0
 800104e:	6043      	str	r3, [r0, #4]
  hdma2d.Init.ColorMode = DMA2D_OUTPUT_RGB565;
 8001050:	2202      	movs	r2, #2
 8001052:	6082      	str	r2, [r0, #8]
  hdma2d.Init.OutputOffset = 0;
 8001054:	60c3      	str	r3, [r0, #12]
  hdma2d.LayerCfg[1].InputOffset = 0;
 8001056:	6283      	str	r3, [r0, #40]	; 0x28
  hdma2d.LayerCfg[1].InputColorMode = DMA2D_INPUT_RGB565;
 8001058:	62c2      	str	r2, [r0, #44]	; 0x2c
  hdma2d.LayerCfg[1].AlphaMode = DMA2D_NO_MODIF_ALPHA;
 800105a:	6303      	str	r3, [r0, #48]	; 0x30
  hdma2d.LayerCfg[1].InputAlpha = 0;
 800105c:	6343      	str	r3, [r0, #52]	; 0x34
  if (HAL_DMA2D_Init(&hdma2d) != HAL_OK)
 800105e:	f000 fcbf 	bl	80019e0 <HAL_DMA2D_Init>
 8001062:	b928      	cbnz	r0, 8001070 <MX_DMA2D_Init+0x2c>
  if (HAL_DMA2D_ConfigLayer(&hdma2d, 1) != HAL_OK)
 8001064:	2101      	movs	r1, #1
 8001066:	4804      	ldr	r0, [pc, #16]	; (8001078 <MX_DMA2D_Init+0x34>)
 8001068:	f000 fd88 	bl	8001b7c <HAL_DMA2D_ConfigLayer>
 800106c:	b910      	cbnz	r0, 8001074 <MX_DMA2D_Init+0x30>
}
 800106e:	bd08      	pop	{r3, pc}
    Error_Handler();
 8001070:	f7ff ffe6 	bl	8001040 <Error_Handler>
    Error_Handler();
 8001074:	f7ff ffe4 	bl	8001040 <Error_Handler>
 8001078:	2003fdec 	.word	0x2003fdec
 800107c:	4002b000 	.word	0x4002b000

08001080 <MX_FMC_Init>:
{
 8001080:	b500      	push	{lr}
 8001082:	b089      	sub	sp, #36	; 0x24
  hsdram1.Instance = FMC_SDRAM_DEVICE;
 8001084:	4814      	ldr	r0, [pc, #80]	; (80010d8 <MX_FMC_Init+0x58>)
 8001086:	4b15      	ldr	r3, [pc, #84]	; (80010dc <MX_FMC_Init+0x5c>)
 8001088:	6003      	str	r3, [r0, #0]
  hsdram1.Init.SDBank = FMC_SDRAM_BANK1;
 800108a:	2300      	movs	r3, #0
 800108c:	6043      	str	r3, [r0, #4]
  hsdram1.Init.ColumnBitsNumber = FMC_SDRAM_COLUMN_BITS_NUM_8;
 800108e:	6083      	str	r3, [r0, #8]
  hsdram1.Init.RowBitsNumber = FMC_SDRAM_ROW_BITS_NUM_12;
 8001090:	2104      	movs	r1, #4
 8001092:	60c1      	str	r1, [r0, #12]
  hsdram1.Init.MemoryDataWidth = FMC_SDRAM_MEM_BUS_WIDTH_16;
 8001094:	2210      	movs	r2, #16
 8001096:	6102      	str	r2, [r0, #16]
  hsdram1.Init.InternalBankNumber = FMC_SDRAM_INTERN_BANKS_NUM_4;
 8001098:	2240      	movs	r2, #64	; 0x40
 800109a:	6142      	str	r2, [r0, #20]
  hsdram1.Init.CASLatency = FMC_SDRAM_CAS_LATENCY_3;
 800109c:	f44f 72c0 	mov.w	r2, #384	; 0x180
 80010a0:	6182      	str	r2, [r0, #24]
  hsdram1.Init.WriteProtection = FMC_SDRAM_WRITE_PROTECTION_DISABLE;
 80010a2:	61c3      	str	r3, [r0, #28]
  hsdram1.Init.SDClockPeriod = FMC_SDRAM_CLOCK_PERIOD_2;
 80010a4:	f44f 6200 	mov.w	r2, #2048	; 0x800
 80010a8:	6202      	str	r2, [r0, #32]
  hsdram1.Init.ReadBurst = FMC_SDRAM_RBURST_ENABLE;
 80010aa:	f44f 5280 	mov.w	r2, #4096	; 0x1000
 80010ae:	6242      	str	r2, [r0, #36]	; 0x24
  hsdram1.Init.ReadPipeDelay = FMC_SDRAM_RPIPE_DELAY_0;
 80010b0:	6283      	str	r3, [r0, #40]	; 0x28
  SdramTiming.LoadToActiveDelay = 2;
 80010b2:	2302      	movs	r3, #2
 80010b4:	9301      	str	r3, [sp, #4]
  SdramTiming.ExitSelfRefreshDelay = 6;
 80010b6:	2206      	movs	r2, #6
 80010b8:	9202      	str	r2, [sp, #8]
  SdramTiming.SelfRefreshTime = 4;
 80010ba:	9103      	str	r1, [sp, #12]
  SdramTiming.RowCycleDelay = 6;
 80010bc:	9204      	str	r2, [sp, #16]
  SdramTiming.WriteRecoveryTime = 2;
 80010be:	9305      	str	r3, [sp, #20]
  SdramTiming.RPDelay = 2;
 80010c0:	9306      	str	r3, [sp, #24]
  SdramTiming.RCDDelay = 2;
 80010c2:	9307      	str	r3, [sp, #28]
  if (HAL_SDRAM_Init(&hsdram1, &SdramTiming) != HAL_OK)
 80010c4:	4469      	add	r1, sp
 80010c6:	f002 fa4b 	bl	8003560 <HAL_SDRAM_Init>
 80010ca:	b910      	cbnz	r0, 80010d2 <MX_FMC_Init+0x52>
}
 80010cc:	b009      	add	sp, #36	; 0x24
 80010ce:	f85d fb04 	ldr.w	pc, [sp], #4
    Error_Handler( );
 80010d2:	f7ff ffb5 	bl	8001040 <Error_Handler>
 80010d6:	bf00      	nop
 80010d8:	2003fe2c 	.word	0x2003fe2c
 80010dc:	a0000140 	.word	0xa0000140

080010e0 <MX_I2C3_Init>:
{
 80010e0:	b508      	push	{r3, lr}
  hi2c3.Instance = I2C3;
 80010e2:	4811      	ldr	r0, [pc, #68]	; (8001128 <MX_I2C3_Init+0x48>)
 80010e4:	4b11      	ldr	r3, [pc, #68]	; (800112c <MX_I2C3_Init+0x4c>)
 80010e6:	6003      	str	r3, [r0, #0]
  hi2c3.Init.Timing = 0x00C0EAFF;
 80010e8:	4b11      	ldr	r3, [pc, #68]	; (8001130 <MX_I2C3_Init+0x50>)
 80010ea:	6043      	str	r3, [r0, #4]
  hi2c3.Init.OwnAddress1 = 224;
 80010ec:	23e0      	movs	r3, #224	; 0xe0
 80010ee:	6083      	str	r3, [r0, #8]
  hi2c3.Init.AddressingMode = I2C_ADDRESSINGMODE_7BIT;
 80010f0:	2301      	movs	r3, #1
 80010f2:	60c3      	str	r3, [r0, #12]
  hi2c3.Init.DualAddressMode = I2C_DUALADDRESS_DISABLE;
 80010f4:	2300      	movs	r3, #0
 80010f6:	6103      	str	r3, [r0, #16]
  hi2c3.Init.OwnAddress2 = 0;
 80010f8:	6143      	str	r3, [r0, #20]
  hi2c3.Init.OwnAddress2Masks = I2C_OA2_NOMASK;
 80010fa:	6183      	str	r3, [r0, #24]
  hi2c3.Init.GeneralCallMode = I2C_GENERALCALL_DISABLE;
 80010fc:	61c3      	str	r3, [r0, #28]
  hi2c3.Init.NoStretchMode = I2C_NOSTRETCH_DISABLE;
 80010fe:	6203      	str	r3, [r0, #32]
  if (HAL_I2C_Init(&hi2c3) != HAL_OK)
 8001100:	f000 fe92 	bl	8001e28 <HAL_I2C_Init>
 8001104:	b950      	cbnz	r0, 800111c <MX_I2C3_Init+0x3c>
  if (HAL_I2CEx_ConfigAnalogFilter(&hi2c3, I2C_ANALOGFILTER_ENABLE) != HAL_OK)
 8001106:	2100      	movs	r1, #0
 8001108:	4807      	ldr	r0, [pc, #28]	; (8001128 <MX_I2C3_Init+0x48>)
 800110a:	f000 feeb 	bl	8001ee4 <HAL_I2CEx_ConfigAnalogFilter>
 800110e:	b938      	cbnz	r0, 8001120 <MX_I2C3_Init+0x40>
  if (HAL_I2CEx_ConfigDigitalFilter(&hi2c3, 0) != HAL_OK)
 8001110:	2100      	movs	r1, #0
 8001112:	4805      	ldr	r0, [pc, #20]	; (8001128 <MX_I2C3_Init+0x48>)
 8001114:	f000 ff14 	bl	8001f40 <HAL_I2CEx_ConfigDigitalFilter>
 8001118:	b920      	cbnz	r0, 8001124 <MX_I2C3_Init+0x44>
}
 800111a:	bd08      	pop	{r3, pc}
    Error_Handler();
 800111c:	f7ff ff90 	bl	8001040 <Error_Handler>
    Error_Handler();
 8001120:	f7ff ff8e 	bl	8001040 <Error_Handler>
    Error_Handler();
 8001124:	f7ff ff8c 	bl	8001040 <Error_Handler>
 8001128:	2003fc54 	.word	0x2003fc54
 800112c:	40005c00 	.word	0x40005c00
 8001130:	00c0eaff 	.word	0x00c0eaff

08001134 <MX_LTDC_Init>:
{
 8001134:	b500      	push	{lr}
 8001136:	b08f      	sub	sp, #60	; 0x3c
  LTDC_LayerCfgTypeDef pLayerCfg = {0};
 8001138:	2234      	movs	r2, #52	; 0x34
 800113a:	2100      	movs	r1, #0
 800113c:	a801      	add	r0, sp, #4
 800113e:	f002 fcab 	bl	8003a98 <memset>
  hltdc.Instance = LTDC;
 8001142:	4826      	ldr	r0, [pc, #152]	; (80011dc <MX_LTDC_Init+0xa8>)
 8001144:	4b26      	ldr	r3, [pc, #152]	; (80011e0 <MX_LTDC_Init+0xac>)
 8001146:	6003      	str	r3, [r0, #0]
  hltdc.Init.HSPolarity = LTDC_HSPOLARITY_AL;
 8001148:	2300      	movs	r3, #0
 800114a:	6043      	str	r3, [r0, #4]
  hltdc.Init.VSPolarity = LTDC_VSPOLARITY_AL;
 800114c:	6083      	str	r3, [r0, #8]
  hltdc.Init.DEPolarity = LTDC_DEPOLARITY_AL;
 800114e:	60c3      	str	r3, [r0, #12]
  hltdc.Init.PCPolarity = LTDC_PCPOLARITY_IPC;
 8001150:	6103      	str	r3, [r0, #16]
  hltdc.Init.HorizontalSync = 40;
 8001152:	2228      	movs	r2, #40	; 0x28
 8001154:	6142      	str	r2, [r0, #20]
  hltdc.Init.VerticalSync = 9;
 8001156:	2209      	movs	r2, #9
 8001158:	6182      	str	r2, [r0, #24]
  hltdc.Init.AccumulatedHBP = 53;
 800115a:	2235      	movs	r2, #53	; 0x35
 800115c:	61c2      	str	r2, [r0, #28]
  hltdc.Init.AccumulatedVBP = 11;
 800115e:	220b      	movs	r2, #11
 8001160:	6202      	str	r2, [r0, #32]
  hltdc.Init.AccumulatedActiveW = 533;
 8001162:	f240 2215 	movw	r2, #533	; 0x215
 8001166:	6242      	str	r2, [r0, #36]	; 0x24
  hltdc.Init.AccumulatedActiveH = 283;
 8001168:	f240 121b 	movw	r2, #283	; 0x11b
 800116c:	6282      	str	r2, [r0, #40]	; 0x28
  hltdc.Init.TotalWidth = 565;
 800116e:	f240 2235 	movw	r2, #565	; 0x235
 8001172:	62c2      	str	r2, [r0, #44]	; 0x2c
  hltdc.Init.TotalHeigh = 285;
 8001174:	f240 121d 	movw	r2, #285	; 0x11d
 8001178:	6302      	str	r2, [r0, #48]	; 0x30
  hltdc.Init.Backcolor.Blue = 0;
 800117a:	f880 3034 	strb.w	r3, [r0, #52]	; 0x34
  hltdc.Init.Backcolor.Green = 0;
 800117e:	f880 3035 	strb.w	r3, [r0, #53]	; 0x35
  hltdc.Init.Backcolor.Red = 0;
 8001182:	f880 3036 	strb.w	r3, [r0, #54]	; 0x36
  if (HAL_LTDC_Init(&hltdc) != HAL_OK)
 8001186:	f000 ffd1 	bl	800212c <HAL_LTDC_Init>
 800118a:	bb18      	cbnz	r0, 80011d4 <MX_LTDC_Init+0xa0>
  pLayerCfg.WindowX0 = 0;
 800118c:	2200      	movs	r2, #0
 800118e:	9201      	str	r2, [sp, #4]
  pLayerCfg.WindowX1 = 480;
 8001190:	f44f 71f0 	mov.w	r1, #480	; 0x1e0
 8001194:	9102      	str	r1, [sp, #8]
  pLayerCfg.WindowY0 = 0;
 8001196:	9203      	str	r2, [sp, #12]
  pLayerCfg.WindowY1 = 272;
 8001198:	f44f 7388 	mov.w	r3, #272	; 0x110
 800119c:	9304      	str	r3, [sp, #16]
  pLayerCfg.PixelFormat = LTDC_PIXEL_FORMAT_RGB565;
 800119e:	2002      	movs	r0, #2
 80011a0:	9005      	str	r0, [sp, #20]
  pLayerCfg.Alpha = 255;
 80011a2:	20ff      	movs	r0, #255	; 0xff
 80011a4:	9006      	str	r0, [sp, #24]
  pLayerCfg.Alpha0 = 0;
 80011a6:	9207      	str	r2, [sp, #28]
  pLayerCfg.BlendingFactor1 = LTDC_BLENDING_FACTOR1_CA;
 80011a8:	f44f 6080 	mov.w	r0, #1024	; 0x400
 80011ac:	9008      	str	r0, [sp, #32]
  pLayerCfg.BlendingFactor2 = LTDC_BLENDING_FACTOR2_CA;
 80011ae:	2005      	movs	r0, #5
 80011b0:	9009      	str	r0, [sp, #36]	; 0x24
  pLayerCfg.FBStartAdress = 0;
 80011b2:	920a      	str	r2, [sp, #40]	; 0x28
  pLayerCfg.ImageWidth = 480;
 80011b4:	910b      	str	r1, [sp, #44]	; 0x2c
  pLayerCfg.ImageHeight = 272;
 80011b6:	930c      	str	r3, [sp, #48]	; 0x30
  pLayerCfg.Backcolor.Blue = 0;
 80011b8:	f88d 2034 	strb.w	r2, [sp, #52]	; 0x34
  pLayerCfg.Backcolor.Green = 0;
 80011bc:	f88d 2035 	strb.w	r2, [sp, #53]	; 0x35
  pLayerCfg.Backcolor.Red = 0;
 80011c0:	f88d 2036 	strb.w	r2, [sp, #54]	; 0x36
  if (HAL_LTDC_ConfigLayer(&hltdc, &pLayerCfg, 0) != HAL_OK)
 80011c4:	a901      	add	r1, sp, #4
 80011c6:	4805      	ldr	r0, [pc, #20]	; (80011dc <MX_LTDC_Init+0xa8>)
 80011c8:	f001 f89a 	bl	8002300 <HAL_LTDC_ConfigLayer>
 80011cc:	b920      	cbnz	r0, 80011d8 <MX_LTDC_Init+0xa4>
}
 80011ce:	b00f      	add	sp, #60	; 0x3c
 80011d0:	f85d fb04 	ldr.w	pc, [sp], #4
    Error_Handler();
 80011d4:	f7ff ff34 	bl	8001040 <Error_Handler>
    Error_Handler();
 80011d8:	f7ff ff32 	bl	8001040 <Error_Handler>
 80011dc:	2003fd24 	.word	0x2003fd24
 80011e0:	40016800 	.word	0x40016800

080011e4 <MX_RTC_Init>:
{
 80011e4:	b510      	push	{r4, lr}
 80011e6:	b092      	sub	sp, #72	; 0x48
  RTC_TimeTypeDef sTime = {0};
 80011e8:	2400      	movs	r4, #0
 80011ea:	940c      	str	r4, [sp, #48]	; 0x30
 80011ec:	940d      	str	r4, [sp, #52]	; 0x34
 80011ee:	940e      	str	r4, [sp, #56]	; 0x38
 80011f0:	940f      	str	r4, [sp, #60]	; 0x3c
 80011f2:	9410      	str	r4, [sp, #64]	; 0x40
 80011f4:	9411      	str	r4, [sp, #68]	; 0x44
  RTC_DateTypeDef sDate = {0};
 80011f6:	940b      	str	r4, [sp, #44]	; 0x2c
  RTC_AlarmTypeDef sAlarm = {0};
 80011f8:	222c      	movs	r2, #44	; 0x2c
 80011fa:	4621      	mov	r1, r4
 80011fc:	4668      	mov	r0, sp
 80011fe:	f002 fc4b 	bl	8003a98 <memset>
  hrtc.Instance = RTC;
 8001202:	4831      	ldr	r0, [pc, #196]	; (80012c8 <MX_RTC_Init+0xe4>)
 8001204:	4b31      	ldr	r3, [pc, #196]	; (80012cc <MX_RTC_Init+0xe8>)
 8001206:	6003      	str	r3, [r0, #0]
  hrtc.Init.HourFormat = RTC_HOURFORMAT_24;
 8001208:	6044      	str	r4, [r0, #4]
  hrtc.Init.AsynchPrediv = 127;
 800120a:	237f      	movs	r3, #127	; 0x7f
 800120c:	6083      	str	r3, [r0, #8]
  hrtc.Init.SynchPrediv = 255;
 800120e:	23ff      	movs	r3, #255	; 0xff
 8001210:	60c3      	str	r3, [r0, #12]
  hrtc.Init.OutPut = RTC_OUTPUT_DISABLE;
 8001212:	6104      	str	r4, [r0, #16]
  hrtc.Init.OutPutPolarity = RTC_OUTPUT_POLARITY_HIGH;
 8001214:	6144      	str	r4, [r0, #20]
  hrtc.Init.OutPutType = RTC_OUTPUT_TYPE_OPENDRAIN;
 8001216:	6184      	str	r4, [r0, #24]
  if (HAL_RTC_Init(&hrtc) != HAL_OK)
 8001218:	f001 ff68 	bl	80030ec <HAL_RTC_Init>
 800121c:	2800      	cmp	r0, #0
 800121e:	d147      	bne.n	80012b0 <MX_RTC_Init+0xcc>
  sTime.Hours = 0x0;
 8001220:	2300      	movs	r3, #0
 8001222:	f88d 3030 	strb.w	r3, [sp, #48]	; 0x30
  sTime.Minutes = 0x0;
 8001226:	f88d 3031 	strb.w	r3, [sp, #49]	; 0x31
  sTime.Seconds = 0x0;
 800122a:	f88d 3032 	strb.w	r3, [sp, #50]	; 0x32
  sTime.DayLightSaving = RTC_DAYLIGHTSAVING_NONE;
 800122e:	9310      	str	r3, [sp, #64]	; 0x40
  sTime.StoreOperation = RTC_STOREOPERATION_RESET;
 8001230:	9311      	str	r3, [sp, #68]	; 0x44
  if (HAL_RTC_SetTime(&hrtc, &sTime, RTC_FORMAT_BCD) != HAL_OK)
 8001232:	2201      	movs	r2, #1
 8001234:	a90c      	add	r1, sp, #48	; 0x30
 8001236:	4824      	ldr	r0, [pc, #144]	; (80012c8 <MX_RTC_Init+0xe4>)
 8001238:	f001 ffc6 	bl	80031c8 <HAL_RTC_SetTime>
 800123c:	2800      	cmp	r0, #0
 800123e:	d139      	bne.n	80012b4 <MX_RTC_Init+0xd0>
  sDate.WeekDay = RTC_WEEKDAY_MONDAY;
 8001240:	2201      	movs	r2, #1
 8001242:	f88d 202c 	strb.w	r2, [sp, #44]	; 0x2c
  sDate.Month = RTC_MONTH_JANUARY;
 8001246:	f88d 202d 	strb.w	r2, [sp, #45]	; 0x2d
  sDate.Date = 0x1;
 800124a:	f88d 202e 	strb.w	r2, [sp, #46]	; 0x2e
  sDate.Year = 0x0;
 800124e:	2300      	movs	r3, #0
 8001250:	f88d 302f 	strb.w	r3, [sp, #47]	; 0x2f
  if (HAL_RTC_SetDate(&hrtc, &sDate, RTC_FORMAT_BCD) != HAL_OK)
 8001254:	a90b      	add	r1, sp, #44	; 0x2c
 8001256:	481c      	ldr	r0, [pc, #112]	; (80012c8 <MX_RTC_Init+0xe4>)
 8001258:	f002 f836 	bl	80032c8 <HAL_RTC_SetDate>
 800125c:	bb60      	cbnz	r0, 80012b8 <MX_RTC_Init+0xd4>
  sAlarm.AlarmTime.Hours = 0x0;
 800125e:	2300      	movs	r3, #0
 8001260:	f88d 3000 	strb.w	r3, [sp]
  sAlarm.AlarmTime.Minutes = 0x0;
 8001264:	f88d 3001 	strb.w	r3, [sp, #1]
  sAlarm.AlarmTime.Seconds = 0x0;
 8001268:	f88d 3002 	strb.w	r3, [sp, #2]
  sAlarm.AlarmTime.SubSeconds = 0x0;
 800126c:	9301      	str	r3, [sp, #4]
  sAlarm.AlarmTime.DayLightSaving = RTC_DAYLIGHTSAVING_NONE;
 800126e:	9304      	str	r3, [sp, #16]
  sAlarm.AlarmTime.StoreOperation = RTC_STOREOPERATION_RESET;
 8001270:	9305      	str	r3, [sp, #20]
  sAlarm.AlarmMask = RTC_ALARMMASK_NONE;
 8001272:	9306      	str	r3, [sp, #24]
  sAlarm.AlarmSubSecondMask = RTC_ALARMSUBSECONDMASK_ALL;
 8001274:	9307      	str	r3, [sp, #28]
  sAlarm.AlarmDateWeekDaySel = RTC_ALARMDATEWEEKDAYSEL_DATE;
 8001276:	9308      	str	r3, [sp, #32]
  sAlarm.AlarmDateWeekDay = 0x1;
 8001278:	2201      	movs	r2, #1
 800127a:	f88d 2024 	strb.w	r2, [sp, #36]	; 0x24
  sAlarm.Alarm = RTC_ALARM_A;
 800127e:	f44f 7380 	mov.w	r3, #256	; 0x100
 8001282:	930a      	str	r3, [sp, #40]	; 0x28
  if (HAL_RTC_SetAlarm(&hrtc, &sAlarm, RTC_FORMAT_BCD) != HAL_OK)
 8001284:	4669      	mov	r1, sp
 8001286:	4810      	ldr	r0, [pc, #64]	; (80012c8 <MX_RTC_Init+0xe4>)
 8001288:	f002 f88c 	bl	80033a4 <HAL_RTC_SetAlarm>
 800128c:	b9b0      	cbnz	r0, 80012bc <MX_RTC_Init+0xd8>
  sAlarm.Alarm = RTC_ALARM_B;
 800128e:	f44f 7300 	mov.w	r3, #512	; 0x200
 8001292:	930a      	str	r3, [sp, #40]	; 0x28
  if (HAL_RTC_SetAlarm(&hrtc, &sAlarm, RTC_FORMAT_BCD) != HAL_OK)
 8001294:	2201      	movs	r2, #1
 8001296:	4669      	mov	r1, sp
 8001298:	480b      	ldr	r0, [pc, #44]	; (80012c8 <MX_RTC_Init+0xe4>)
 800129a:	f002 f883 	bl	80033a4 <HAL_RTC_SetAlarm>
 800129e:	b978      	cbnz	r0, 80012c0 <MX_RTC_Init+0xdc>
  if (HAL_RTCEx_SetTimeStamp(&hrtc, RTC_TIMESTAMPEDGE_RISING, RTC_TIMESTAMPPIN_POS1) != HAL_OK)
 80012a0:	2202      	movs	r2, #2
 80012a2:	2100      	movs	r1, #0
 80012a4:	4808      	ldr	r0, [pc, #32]	; (80012c8 <MX_RTC_Init+0xe4>)
 80012a6:	f002 f92d 	bl	8003504 <HAL_RTCEx_SetTimeStamp>
 80012aa:	b958      	cbnz	r0, 80012c4 <MX_RTC_Init+0xe0>
}
 80012ac:	b012      	add	sp, #72	; 0x48
 80012ae:	bd10      	pop	{r4, pc}
    Error_Handler();
 80012b0:	f7ff fec6 	bl	8001040 <Error_Handler>
    Error_Handler();
 80012b4:	f7ff fec4 	bl	8001040 <Error_Handler>
    Error_Handler();
 80012b8:	f7ff fec2 	bl	8001040 <Error_Handler>
    Error_Handler();
 80012bc:	f7ff fec0 	bl	8001040 <Error_Handler>
    Error_Handler();
 80012c0:	f7ff febe 	bl	8001040 <Error_Handler>
    Error_Handler();
 80012c4:	f7ff febc 	bl	8001040 <Error_Handler>
 80012c8:	2003fdcc 	.word	0x2003fdcc
 80012cc:	40002800 	.word	0x40002800

080012d0 <SystemClock_Config>:
{
 80012d0:	b500      	push	{lr}
 80012d2:	b0b5      	sub	sp, #212	; 0xd4
  RCC_OscInitTypeDef RCC_OscInitStruct = {0};
 80012d4:	2230      	movs	r2, #48	; 0x30
 80012d6:	2100      	movs	r1, #0
 80012d8:	a828      	add	r0, sp, #160	; 0xa0
 80012da:	f002 fbdd 	bl	8003a98 <memset>
  RCC_ClkInitTypeDef RCC_ClkInitStruct = {0};
 80012de:	2100      	movs	r1, #0
 80012e0:	9123      	str	r1, [sp, #140]	; 0x8c
 80012e2:	9124      	str	r1, [sp, #144]	; 0x90
 80012e4:	9125      	str	r1, [sp, #148]	; 0x94
 80012e6:	9126      	str	r1, [sp, #152]	; 0x98
 80012e8:	9127      	str	r1, [sp, #156]	; 0x9c
  RCC_PeriphCLKInitTypeDef PeriphClkInitStruct = {0};
 80012ea:	2284      	movs	r2, #132	; 0x84
 80012ec:	a802      	add	r0, sp, #8
 80012ee:	f002 fbd3 	bl	8003a98 <memset>
  HAL_PWR_EnableBkUpAccess();
 80012f2:	f001 f855 	bl	80023a0 <HAL_PWR_EnableBkUpAccess>
  __HAL_RCC_PWR_CLK_ENABLE();
 80012f6:	4b33      	ldr	r3, [pc, #204]	; (80013c4 <SystemClock_Config+0xf4>)
 80012f8:	6c1a      	ldr	r2, [r3, #64]	; 0x40
 80012fa:	f042 5280 	orr.w	r2, r2, #268435456	; 0x10000000
 80012fe:	641a      	str	r2, [r3, #64]	; 0x40
 8001300:	6c1b      	ldr	r3, [r3, #64]	; 0x40
 8001302:	f003 5380 	and.w	r3, r3, #268435456	; 0x10000000
 8001306:	9300      	str	r3, [sp, #0]
 8001308:	9b00      	ldr	r3, [sp, #0]
  __HAL_PWR_VOLTAGESCALING_CONFIG(PWR_REGULATOR_VOLTAGE_SCALE1);
 800130a:	4b2f      	ldr	r3, [pc, #188]	; (80013c8 <SystemClock_Config+0xf8>)
 800130c:	681a      	ldr	r2, [r3, #0]
 800130e:	f442 4240 	orr.w	r2, r2, #49152	; 0xc000
 8001312:	601a      	str	r2, [r3, #0]
 8001314:	681b      	ldr	r3, [r3, #0]
 8001316:	f403 4340 	and.w	r3, r3, #49152	; 0xc000
 800131a:	9301      	str	r3, [sp, #4]
 800131c:	9b01      	ldr	r3, [sp, #4]
  RCC_OscInitStruct.OscillatorType = RCC_OSCILLATORTYPE_LSI|RCC_OSCILLATORTYPE_HSE;
 800131e:	2309      	movs	r3, #9
 8001320:	9328      	str	r3, [sp, #160]	; 0xa0
  RCC_OscInitStruct.HSEState = RCC_HSE_ON;
 8001322:	f44f 3380 	mov.w	r3, #65536	; 0x10000
 8001326:	9329      	str	r3, [sp, #164]	; 0xa4
  RCC_OscInitStruct.LSIState = RCC_LSI_ON;
 8001328:	2301      	movs	r3, #1
 800132a:	932d      	str	r3, [sp, #180]	; 0xb4
  RCC_OscInitStruct.PLL.PLLState = RCC_PLL_ON;
 800132c:	2302      	movs	r3, #2
 800132e:	932e      	str	r3, [sp, #184]	; 0xb8
  RCC_OscInitStruct.PLL.PLLSource = RCC_PLLSOURCE_HSE;
 8001330:	f44f 0280 	mov.w	r2, #4194304	; 0x400000
 8001334:	922f      	str	r2, [sp, #188]	; 0xbc
  RCC_OscInitStruct.PLL.PLLM = 25;
 8001336:	2219      	movs	r2, #25
 8001338:	9230      	str	r2, [sp, #192]	; 0xc0
  RCC_OscInitStruct.PLL.PLLN = 400;
 800133a:	f44f 72c8 	mov.w	r2, #400	; 0x190
 800133e:	9231      	str	r2, [sp, #196]	; 0xc4
  RCC_OscInitStruct.PLL.PLLP = RCC_PLLP_DIV2;
 8001340:	9332      	str	r3, [sp, #200]	; 0xc8
  RCC_OscInitStruct.PLL.PLLQ = 8;
 8001342:	2308      	movs	r3, #8
 8001344:	9333      	str	r3, [sp, #204]	; 0xcc
  if (HAL_RCC_OscConfig(&RCC_OscInitStruct) != HAL_OK)
 8001346:	a828      	add	r0, sp, #160	; 0xa0
 8001348:	f001 f870 	bl	800242c <HAL_RCC_OscConfig>
 800134c:	2800      	cmp	r0, #0
 800134e:	d131      	bne.n	80013b4 <SystemClock_Config+0xe4>
  if (HAL_PWREx_EnableOverDrive() != HAL_OK)
 8001350:	f001 f82e 	bl	80023b0 <HAL_PWREx_EnableOverDrive>
 8001354:	2800      	cmp	r0, #0
 8001356:	d12f      	bne.n	80013b8 <SystemClock_Config+0xe8>
  RCC_ClkInitStruct.ClockType = RCC_CLOCKTYPE_HCLK|RCC_CLOCKTYPE_SYSCLK
 8001358:	230f      	movs	r3, #15
 800135a:	9323      	str	r3, [sp, #140]	; 0x8c
  RCC_ClkInitStruct.SYSCLKSource = RCC_SYSCLKSOURCE_PLLCLK;
 800135c:	2302      	movs	r3, #2
 800135e:	9324      	str	r3, [sp, #144]	; 0x90
  RCC_ClkInitStruct.AHBCLKDivider = RCC_SYSCLK_DIV1;
 8001360:	2300      	movs	r3, #0
 8001362:	9325      	str	r3, [sp, #148]	; 0x94
  RCC_ClkInitStruct.APB1CLKDivider = RCC_HCLK_DIV4;
 8001364:	f44f 53a0 	mov.w	r3, #5120	; 0x1400
 8001368:	9326      	str	r3, [sp, #152]	; 0x98
  RCC_ClkInitStruct.APB2CLKDivider = RCC_HCLK_DIV2;
 800136a:	f44f 5380 	mov.w	r3, #4096	; 0x1000
 800136e:	9327      	str	r3, [sp, #156]	; 0x9c
  if (HAL_RCC_ClockConfig(&RCC_ClkInitStruct, FLASH_LATENCY_6) != HAL_OK)
 8001370:	2106      	movs	r1, #6
 8001372:	a823      	add	r0, sp, #140	; 0x8c
 8001374:	f001 fac8 	bl	8002908 <HAL_RCC_ClockConfig>
 8001378:	bb00      	cbnz	r0, 80013bc <SystemClock_Config+0xec>
  PeriphClkInitStruct.PeriphClockSelection = RCC_PERIPHCLK_LTDC|RCC_PERIPHCLK_RTC
 800137a:	4b14      	ldr	r3, [pc, #80]	; (80013cc <SystemClock_Config+0xfc>)
 800137c:	9302      	str	r3, [sp, #8]
  PeriphClkInitStruct.PLLSAI.PLLSAIN = 100;
 800137e:	2364      	movs	r3, #100	; 0x64
 8001380:	9307      	str	r3, [sp, #28]
  PeriphClkInitStruct.PLLSAI.PLLSAIR = 2;
 8001382:	2302      	movs	r3, #2
 8001384:	9309      	str	r3, [sp, #36]	; 0x24
  PeriphClkInitStruct.PLLSAI.PLLSAIQ = 2;
 8001386:	9308      	str	r3, [sp, #32]
  PeriphClkInitStruct.PLLSAI.PLLSAIP = RCC_PLLSAIP_DIV2;
 8001388:	2300      	movs	r3, #0
 800138a:	930a      	str	r3, [sp, #40]	; 0x28
  PeriphClkInitStruct.PLLSAIDivQ = 1;
 800138c:	2201      	movs	r2, #1
 800138e:	920c      	str	r2, [sp, #48]	; 0x30
  PeriphClkInitStruct.PLLSAIDivR = RCC_PLLSAIDIVR_4;
 8001390:	f44f 3280 	mov.w	r2, #65536	; 0x10000
 8001394:	920d      	str	r2, [sp, #52]	; 0x34
  PeriphClkInitStruct.RTCClockSelection = RCC_RTCCLKSOURCE_LSI;
 8001396:	f44f 7200 	mov.w	r2, #512	; 0x200
 800139a:	920e      	str	r2, [sp, #56]	; 0x38
  PeriphClkInitStruct.I2c3ClockSelection = RCC_I2C3CLKSOURCE_PCLK1;
 800139c:	931d      	str	r3, [sp, #116]	; 0x74
  PeriphClkInitStruct.Clk48ClockSelection = RCC_CLK48SOURCE_PLLSAIP;
 800139e:	f04f 6200 	mov.w	r2, #134217728	; 0x8000000
 80013a2:	9221      	str	r2, [sp, #132]	; 0x84
  PeriphClkInitStruct.Sdmmc1ClockSelection = RCC_SDMMC1CLKSOURCE_CLK48;
 80013a4:	9322      	str	r3, [sp, #136]	; 0x88
  if (HAL_RCCEx_PeriphCLKConfig(&PeriphClkInitStruct) != HAL_OK)
 80013a6:	a802      	add	r0, sp, #8
 80013a8:	f001 fb96 	bl	8002ad8 <HAL_RCCEx_PeriphCLKConfig>
 80013ac:	b940      	cbnz	r0, 80013c0 <SystemClock_Config+0xf0>
}
 80013ae:	b035      	add	sp, #212	; 0xd4
 80013b0:	f85d fb04 	ldr.w	pc, [sp], #4
    Error_Handler();
 80013b4:	f7ff fe44 	bl	8001040 <Error_Handler>
    Error_Handler();
 80013b8:	f7ff fe42 	bl	8001040 <Error_Handler>
    Error_Handler();
 80013bc:	f7ff fe40 	bl	8001040 <Error_Handler>
    Error_Handler();
 80013c0:	f7ff fe3e 	bl	8001040 <Error_Handler>
 80013c4:	40023800 	.word	0x40023800
 80013c8:	40007000 	.word	0x40007000
 80013cc:	00a10028 	.word	0x00a10028

080013d0 <main>:
{
 80013d0:	b508      	push	{r3, lr}
  MPU_Config();
 80013d2:	f7ff fb55 	bl	8000a80 <MPU_Config>
  HAL_Init();
 80013d6:	f000 fa2d 	bl	8001834 <HAL_Init>
  SystemClock_Config();
 80013da:	f7ff ff79 	bl	80012d0 <SystemClock_Config>
  HAL_Delay(500);
 80013de:	f44f 70fa 	mov.w	r0, #500	; 0x1f4
 80013e2:	f000 fa4b 	bl	800187c <HAL_Delay>
  MX_GPIO_Init();
 80013e6:	f7ff fb77 	bl	8000ad8 <MX_GPIO_Init>
  MX_DMA2D_Init();
 80013ea:	f7ff fe2b 	bl	8001044 <MX_DMA2D_Init>
  MX_FMC_Init();
 80013ee:	f7ff fe47 	bl	8001080 <MX_FMC_Init>
  MX_I2C3_Init();
 80013f2:	f7ff fe75 	bl	80010e0 <MX_I2C3_Init>
  MX_LTDC_Init();
 80013f6:	f7ff fe9d 	bl	8001134 <MX_LTDC_Init>
  MX_RTC_Init();
 80013fa:	f7ff fef3 	bl	80011e4 <MX_RTC_Init>
	  MainFunc ();
 80013fe:	f7ff faef 	bl	80009e0 <MainFunc>
 8001402:	e7fc      	b.n	80013fe <main+0x2e>

08001404 <HAL_FMC_MspInit>:

}

static uint32_t FMC_Initialized = 0;

static void HAL_FMC_MspInit(void){
 8001404:	b5f0      	push	{r4, r5, r6, r7, lr}
 8001406:	b087      	sub	sp, #28
  /* USER CODE BEGIN FMC_MspInit 0 */

  /* USER CODE END FMC_MspInit 0 */
  GPIO_InitTypeDef GPIO_InitStruct ={0};
 8001408:	2300      	movs	r3, #0
 800140a:	9301      	str	r3, [sp, #4]
 800140c:	9302      	str	r3, [sp, #8]
 800140e:	9303      	str	r3, [sp, #12]
 8001410:	9304      	str	r3, [sp, #16]
 8001412:	9305      	str	r3, [sp, #20]
  if (FMC_Initialized) {
 8001414:	4b2a      	ldr	r3, [pc, #168]	; (80014c0 <HAL_FMC_MspInit+0xbc>)
 8001416:	681b      	ldr	r3, [r3, #0]
 8001418:	b10b      	cbz	r3, 800141e <HAL_FMC_MspInit+0x1a>
  HAL_GPIO_Init(FMC_SDCKE0_GPIO_Port, &GPIO_InitStruct);

  /* USER CODE BEGIN FMC_MspInit 1 */

  /* USER CODE END FMC_MspInit 1 */
}
 800141a:	b007      	add	sp, #28
 800141c:	bdf0      	pop	{r4, r5, r6, r7, pc}
  FMC_Initialized = 1;
 800141e:	4b28      	ldr	r3, [pc, #160]	; (80014c0 <HAL_FMC_MspInit+0xbc>)
 8001420:	2201      	movs	r2, #1
 8001422:	601a      	str	r2, [r3, #0]
  __HAL_RCC_FMC_CLK_ENABLE();
 8001424:	4b27      	ldr	r3, [pc, #156]	; (80014c4 <HAL_FMC_MspInit+0xc0>)
 8001426:	6b9a      	ldr	r2, [r3, #56]	; 0x38
 8001428:	f042 0201 	orr.w	r2, r2, #1
 800142c:	639a      	str	r2, [r3, #56]	; 0x38
 800142e:	6b9b      	ldr	r3, [r3, #56]	; 0x38
 8001430:	f003 0301 	and.w	r3, r3, #1
 8001434:	9300      	str	r3, [sp, #0]
 8001436:	9b00      	ldr	r3, [sp, #0]
  GPIO_InitStruct.Pin = FMC_NBL1_Pin|FMC_NBL0_Pin|FMC_D5_Pin|FMC_D6_Pin
 8001438:	f64f 7383 	movw	r3, #65411	; 0xff83
 800143c:	9301      	str	r3, [sp, #4]
  GPIO_InitStruct.Mode = GPIO_MODE_AF_PP;
 800143e:	2602      	movs	r6, #2
 8001440:	9602      	str	r6, [sp, #8]
  GPIO_InitStruct.Speed = GPIO_SPEED_FREQ_VERY_HIGH;
 8001442:	2503      	movs	r5, #3
 8001444:	9504      	str	r5, [sp, #16]
  GPIO_InitStruct.Alternate = GPIO_AF12_FMC;
 8001446:	240c      	movs	r4, #12
 8001448:	9405      	str	r4, [sp, #20]
  HAL_GPIO_Init(GPIOE, &GPIO_InitStruct);
 800144a:	a901      	add	r1, sp, #4
 800144c:	481e      	ldr	r0, [pc, #120]	; (80014c8 <HAL_FMC_MspInit+0xc4>)
 800144e:	f000 fbf7 	bl	8001c40 <HAL_GPIO_Init>
  GPIO_InitStruct.Pin = FMC_SDNCAS_Pin|FMC_SDCLK_Pin|FMC_A11_Pin|FMC_A10_Pin
 8001452:	f248 1333 	movw	r3, #33075	; 0x8133
 8001456:	9301      	str	r3, [sp, #4]
  GPIO_InitStruct.Mode = GPIO_MODE_AF_PP;
 8001458:	9602      	str	r6, [sp, #8]
  GPIO_InitStruct.Pull = GPIO_NOPULL;
 800145a:	2700      	movs	r7, #0
 800145c:	9703      	str	r7, [sp, #12]
  GPIO_InitStruct.Speed = GPIO_SPEED_FREQ_VERY_HIGH;
 800145e:	9504      	str	r5, [sp, #16]
  GPIO_InitStruct.Alternate = GPIO_AF12_FMC;
 8001460:	9405      	str	r4, [sp, #20]
  HAL_GPIO_Init(GPIOG, &GPIO_InitStruct);
 8001462:	a901      	add	r1, sp, #4
 8001464:	4819      	ldr	r0, [pc, #100]	; (80014cc <HAL_FMC_MspInit+0xc8>)
 8001466:	f000 fbeb 	bl	8001c40 <HAL_GPIO_Init>
  GPIO_InitStruct.Pin = FMC_D2_Pin|FMC_D3_Pin|FMC_D1_Pin|FMC_D15_Pin
 800146a:	f24c 7303 	movw	r3, #50947	; 0xc703
 800146e:	9301      	str	r3, [sp, #4]
  GPIO_InitStruct.Mode = GPIO_MODE_AF_PP;
 8001470:	9602      	str	r6, [sp, #8]
  GPIO_InitStruct.Pull = GPIO_NOPULL;
 8001472:	9703      	str	r7, [sp, #12]
  GPIO_InitStruct.Speed = GPIO_SPEED_FREQ_VERY_HIGH;
 8001474:	9504      	str	r5, [sp, #16]
  GPIO_InitStruct.Alternate = GPIO_AF12_FMC;
 8001476:	9405      	str	r4, [sp, #20]
  HAL_GPIO_Init(GPIOD, &GPIO_InitStruct);
 8001478:	a901      	add	r1, sp, #4
 800147a:	4815      	ldr	r0, [pc, #84]	; (80014d0 <HAL_FMC_MspInit+0xcc>)
 800147c:	f000 fbe0 	bl	8001c40 <HAL_GPIO_Init>
  GPIO_InitStruct.Pin = FMC_A0_Pin|FMC_A1_Pin|FMC_A2_Pin|FMC_A3_Pin
 8001480:	f64f 033f 	movw	r3, #63551	; 0xf83f
 8001484:	9301      	str	r3, [sp, #4]
  GPIO_InitStruct.Mode = GPIO_MODE_AF_PP;
 8001486:	9602      	str	r6, [sp, #8]
  GPIO_InitStruct.Pull = GPIO_NOPULL;
 8001488:	9703      	str	r7, [sp, #12]
  GPIO_InitStruct.Speed = GPIO_SPEED_FREQ_VERY_HIGH;
 800148a:	9504      	str	r5, [sp, #16]
  GPIO_InitStruct.Alternate = GPIO_AF12_FMC;
 800148c:	9405      	str	r4, [sp, #20]
  HAL_GPIO_Init(GPIOF, &GPIO_InitStruct);
 800148e:	a901      	add	r1, sp, #4
 8001490:	4810      	ldr	r0, [pc, #64]	; (80014d4 <HAL_FMC_MspInit+0xd0>)
 8001492:	f000 fbd5 	bl	8001c40 <HAL_GPIO_Init>
  GPIO_InitStruct.Pin = FMC_SDNME_Pin|FMC_SDNE0_Pin;
 8001496:	2328      	movs	r3, #40	; 0x28
 8001498:	9301      	str	r3, [sp, #4]
  GPIO_InitStruct.Mode = GPIO_MODE_AF_PP;
 800149a:	9602      	str	r6, [sp, #8]
  GPIO_InitStruct.Pull = GPIO_NOPULL;
 800149c:	9703      	str	r7, [sp, #12]
  GPIO_InitStruct.Speed = GPIO_SPEED_FREQ_VERY_HIGH;
 800149e:	9504      	str	r5, [sp, #16]
  GPIO_InitStruct.Alternate = GPIO_AF12_FMC;
 80014a0:	9405      	str	r4, [sp, #20]
  HAL_GPIO_Init(GPIOH, &GPIO_InitStruct);
 80014a2:	a901      	add	r1, sp, #4
 80014a4:	480c      	ldr	r0, [pc, #48]	; (80014d8 <HAL_FMC_MspInit+0xd4>)
 80014a6:	f000 fbcb 	bl	8001c40 <HAL_GPIO_Init>
  GPIO_InitStruct.Pin = FMC_SDCKE0_Pin;
 80014aa:	2308      	movs	r3, #8
 80014ac:	9301      	str	r3, [sp, #4]
  GPIO_InitStruct.Mode = GPIO_MODE_AF_PP;
 80014ae:	9602      	str	r6, [sp, #8]
  GPIO_InitStruct.Pull = GPIO_NOPULL;
 80014b0:	9703      	str	r7, [sp, #12]
  GPIO_InitStruct.Speed = GPIO_SPEED_FREQ_VERY_HIGH;
 80014b2:	9504      	str	r5, [sp, #16]
  GPIO_InitStruct.Alternate = GPIO_AF12_FMC;
 80014b4:	9405      	str	r4, [sp, #20]
  HAL_GPIO_Init(FMC_SDCKE0_GPIO_Port, &GPIO_InitStruct);
 80014b6:	a901      	add	r1, sp, #4
 80014b8:	4808      	ldr	r0, [pc, #32]	; (80014dc <HAL_FMC_MspInit+0xd8>)
 80014ba:	f000 fbc1 	bl	8001c40 <HAL_GPIO_Init>
 80014be:	e7ac      	b.n	800141a <HAL_FMC_MspInit+0x16>
 80014c0:	20000040 	.word	0x20000040
 80014c4:	40023800 	.word	0x40023800
 80014c8:	40021000 	.word	0x40021000
 80014cc:	40021800 	.word	0x40021800
 80014d0:	40020c00 	.word	0x40020c00
 80014d4:	40021400 	.word	0x40021400
 80014d8:	40021c00 	.word	0x40021c00
 80014dc:	40020800 	.word	0x40020800

080014e0 <HAL_MspInit>:
{
 80014e0:	b082      	sub	sp, #8
  __HAL_RCC_PWR_CLK_ENABLE();
 80014e2:	4b0a      	ldr	r3, [pc, #40]	; (800150c <HAL_MspInit+0x2c>)
 80014e4:	6c1a      	ldr	r2, [r3, #64]	; 0x40
 80014e6:	f042 5280 	orr.w	r2, r2, #268435456	; 0x10000000
 80014ea:	641a      	str	r2, [r3, #64]	; 0x40
 80014ec:	6c1a      	ldr	r2, [r3, #64]	; 0x40
 80014ee:	f002 5280 	and.w	r2, r2, #268435456	; 0x10000000
 80014f2:	9200      	str	r2, [sp, #0]
 80014f4:	9a00      	ldr	r2, [sp, #0]
  __HAL_RCC_SYSCFG_CLK_ENABLE();
 80014f6:	6c5a      	ldr	r2, [r3, #68]	; 0x44
 80014f8:	f442 4280 	orr.w	r2, r2, #16384	; 0x4000
 80014fc:	645a      	str	r2, [r3, #68]	; 0x44
 80014fe:	6c5b      	ldr	r3, [r3, #68]	; 0x44
 8001500:	f403 4380 	and.w	r3, r3, #16384	; 0x4000
 8001504:	9301      	str	r3, [sp, #4]
 8001506:	9b01      	ldr	r3, [sp, #4]
}
 8001508:	b002      	add	sp, #8
 800150a:	4770      	bx	lr
 800150c:	40023800 	.word	0x40023800

08001510 <HAL_DMA2D_MspInit>:
  if(hdma2d->Instance==DMA2D)
 8001510:	6802      	ldr	r2, [r0, #0]
 8001512:	4b0e      	ldr	r3, [pc, #56]	; (800154c <HAL_DMA2D_MspInit+0x3c>)
 8001514:	429a      	cmp	r2, r3
 8001516:	d000      	beq.n	800151a <HAL_DMA2D_MspInit+0xa>
 8001518:	4770      	bx	lr
{
 800151a:	b500      	push	{lr}
 800151c:	b083      	sub	sp, #12
    __HAL_RCC_DMA2D_CLK_ENABLE();
 800151e:	f5a3 43f0 	sub.w	r3, r3, #30720	; 0x7800
 8001522:	6b1a      	ldr	r2, [r3, #48]	; 0x30
 8001524:	f442 0200 	orr.w	r2, r2, #8388608	; 0x800000
 8001528:	631a      	str	r2, [r3, #48]	; 0x30
 800152a:	6b1b      	ldr	r3, [r3, #48]	; 0x30
 800152c:	f403 0300 	and.w	r3, r3, #8388608	; 0x800000
 8001530:	9301      	str	r3, [sp, #4]
 8001532:	9b01      	ldr	r3, [sp, #4]
    HAL_NVIC_SetPriority(DMA2D_IRQn, 0, 0);
 8001534:	2200      	movs	r2, #0
 8001536:	4611      	mov	r1, r2
 8001538:	205a      	movs	r0, #90	; 0x5a
 800153a:	f000 f9c5 	bl	80018c8 <HAL_NVIC_SetPriority>
    HAL_NVIC_EnableIRQ(DMA2D_IRQn);
 800153e:	205a      	movs	r0, #90	; 0x5a
 8001540:	f000 f9f4 	bl	800192c <HAL_NVIC_EnableIRQ>
}
 8001544:	b003      	add	sp, #12
 8001546:	f85d fb04 	ldr.w	pc, [sp], #4
 800154a:	bf00      	nop
 800154c:	4002b000 	.word	0x4002b000

08001550 <HAL_I2C_MspInit>:
{
 8001550:	b510      	push	{r4, lr}
 8001552:	b088      	sub	sp, #32
  GPIO_InitTypeDef GPIO_InitStruct = {0};
 8001554:	2300      	movs	r3, #0
 8001556:	9303      	str	r3, [sp, #12]
 8001558:	9304      	str	r3, [sp, #16]
 800155a:	9305      	str	r3, [sp, #20]
 800155c:	9306      	str	r3, [sp, #24]
 800155e:	9307      	str	r3, [sp, #28]
  if(hi2c->Instance==I2C3)
 8001560:	6802      	ldr	r2, [r0, #0]
 8001562:	4b14      	ldr	r3, [pc, #80]	; (80015b4 <HAL_I2C_MspInit+0x64>)
 8001564:	429a      	cmp	r2, r3
 8001566:	d001      	beq.n	800156c <HAL_I2C_MspInit+0x1c>
}
 8001568:	b008      	add	sp, #32
 800156a:	bd10      	pop	{r4, pc}
    __HAL_RCC_GPIOH_CLK_ENABLE();
 800156c:	4c12      	ldr	r4, [pc, #72]	; (80015b8 <HAL_I2C_MspInit+0x68>)
 800156e:	6b23      	ldr	r3, [r4, #48]	; 0x30
 8001570:	f043 0380 	orr.w	r3, r3, #128	; 0x80
 8001574:	6323      	str	r3, [r4, #48]	; 0x30
 8001576:	6b23      	ldr	r3, [r4, #48]	; 0x30
 8001578:	f003 0380 	and.w	r3, r3, #128	; 0x80
 800157c:	9301      	str	r3, [sp, #4]
 800157e:	9b01      	ldr	r3, [sp, #4]
    GPIO_InitStruct.Pin = LCD_SCL_Pin|LCD_SDA_Pin;
 8001580:	f44f 73c0 	mov.w	r3, #384	; 0x180
 8001584:	9303      	str	r3, [sp, #12]
    GPIO_InitStruct.Mode = GPIO_MODE_AF_OD;
 8001586:	2312      	movs	r3, #18
 8001588:	9304      	str	r3, [sp, #16]
    GPIO_InitStruct.Pull = GPIO_PULLUP;
 800158a:	2301      	movs	r3, #1
 800158c:	9305      	str	r3, [sp, #20]
    GPIO_InitStruct.Speed = GPIO_SPEED_FREQ_VERY_HIGH;
 800158e:	2303      	movs	r3, #3
 8001590:	9306      	str	r3, [sp, #24]
    GPIO_InitStruct.Alternate = GPIO_AF4_I2C3;
 8001592:	2304      	movs	r3, #4
 8001594:	9307      	str	r3, [sp, #28]
    HAL_GPIO_Init(GPIOH, &GPIO_InitStruct);
 8001596:	a903      	add	r1, sp, #12
 8001598:	4808      	ldr	r0, [pc, #32]	; (80015bc <HAL_I2C_MspInit+0x6c>)
 800159a:	f000 fb51 	bl	8001c40 <HAL_GPIO_Init>
    __HAL_RCC_I2C3_CLK_ENABLE();
 800159e:	6c23      	ldr	r3, [r4, #64]	; 0x40
 80015a0:	f443 0300 	orr.w	r3, r3, #8388608	; 0x800000
 80015a4:	6423      	str	r3, [r4, #64]	; 0x40
 80015a6:	6c23      	ldr	r3, [r4, #64]	; 0x40
 80015a8:	f403 0300 	and.w	r3, r3, #8388608	; 0x800000
 80015ac:	9302      	str	r3, [sp, #8]
 80015ae:	9b02      	ldr	r3, [sp, #8]
}
 80015b0:	e7da      	b.n	8001568 <HAL_I2C_MspInit+0x18>
 80015b2:	bf00      	nop
 80015b4:	40005c00 	.word	0x40005c00
 80015b8:	40023800 	.word	0x40023800
 80015bc:	40021c00 	.word	0x40021c00

080015c0 <HAL_LTDC_MspInit>:
{
 80015c0:	b570      	push	{r4, r5, r6, lr}
 80015c2:	b08c      	sub	sp, #48	; 0x30
  GPIO_InitTypeDef GPIO_InitStruct = {0};
 80015c4:	2300      	movs	r3, #0
 80015c6:	9307      	str	r3, [sp, #28]
 80015c8:	9308      	str	r3, [sp, #32]
 80015ca:	9309      	str	r3, [sp, #36]	; 0x24
 80015cc:	930a      	str	r3, [sp, #40]	; 0x28
 80015ce:	930b      	str	r3, [sp, #44]	; 0x2c
  if(hltdc->Instance==LTDC)
 80015d0:	6802      	ldr	r2, [r0, #0]
 80015d2:	4b3e      	ldr	r3, [pc, #248]	; (80016cc <HAL_LTDC_MspInit+0x10c>)
 80015d4:	429a      	cmp	r2, r3
 80015d6:	d001      	beq.n	80015dc <HAL_LTDC_MspInit+0x1c>
}
 80015d8:	b00c      	add	sp, #48	; 0x30
 80015da:	bd70      	pop	{r4, r5, r6, pc}
    __HAL_RCC_LTDC_CLK_ENABLE();
 80015dc:	f503 4350 	add.w	r3, r3, #53248	; 0xd000
 80015e0:	6c5a      	ldr	r2, [r3, #68]	; 0x44
 80015e2:	f042 6280 	orr.w	r2, r2, #67108864	; 0x4000000
 80015e6:	645a      	str	r2, [r3, #68]	; 0x44
 80015e8:	6c5a      	ldr	r2, [r3, #68]	; 0x44
 80015ea:	f002 6280 	and.w	r2, r2, #67108864	; 0x4000000
 80015ee:	9201      	str	r2, [sp, #4]
 80015f0:	9a01      	ldr	r2, [sp, #4]
    __HAL_RCC_GPIOE_CLK_ENABLE();
 80015f2:	6b1a      	ldr	r2, [r3, #48]	; 0x30
 80015f4:	f042 0210 	orr.w	r2, r2, #16
 80015f8:	631a      	str	r2, [r3, #48]	; 0x30
 80015fa:	6b1a      	ldr	r2, [r3, #48]	; 0x30
 80015fc:	f002 0210 	and.w	r2, r2, #16
 8001600:	9202      	str	r2, [sp, #8]
 8001602:	9a02      	ldr	r2, [sp, #8]
    __HAL_RCC_GPIOJ_CLK_ENABLE();
 8001604:	6b1a      	ldr	r2, [r3, #48]	; 0x30
 8001606:	f442 7200 	orr.w	r2, r2, #512	; 0x200
 800160a:	631a      	str	r2, [r3, #48]	; 0x30
 800160c:	6b1a      	ldr	r2, [r3, #48]	; 0x30
 800160e:	f402 7200 	and.w	r2, r2, #512	; 0x200
 8001612:	9203      	str	r2, [sp, #12]
 8001614:	9a03      	ldr	r2, [sp, #12]
    __HAL_RCC_GPIOK_CLK_ENABLE();
 8001616:	6b1a      	ldr	r2, [r3, #48]	; 0x30
 8001618:	f442 6280 	orr.w	r2, r2, #1024	; 0x400
 800161c:	631a      	str	r2, [r3, #48]	; 0x30
 800161e:	6b1a      	ldr	r2, [r3, #48]	; 0x30
 8001620:	f402 6280 	and.w	r2, r2, #1024	; 0x400
 8001624:	9204      	str	r2, [sp, #16]
 8001626:	9a04      	ldr	r2, [sp, #16]
    __HAL_RCC_GPIOG_CLK_ENABLE();
 8001628:	6b1a      	ldr	r2, [r3, #48]	; 0x30
 800162a:	f042 0240 	orr.w	r2, r2, #64	; 0x40
 800162e:	631a      	str	r2, [r3, #48]	; 0x30
 8001630:	6b1a      	ldr	r2, [r3, #48]	; 0x30
 8001632:	f002 0240 	and.w	r2, r2, #64	; 0x40
 8001636:	9205      	str	r2, [sp, #20]
 8001638:	9a05      	ldr	r2, [sp, #20]
    __HAL_RCC_GPIOI_CLK_ENABLE();
 800163a:	6b1a      	ldr	r2, [r3, #48]	; 0x30
 800163c:	f442 7280 	orr.w	r2, r2, #256	; 0x100
 8001640:	631a      	str	r2, [r3, #48]	; 0x30
 8001642:	6b1b      	ldr	r3, [r3, #48]	; 0x30
 8001644:	f403 7380 	and.w	r3, r3, #256	; 0x100
 8001648:	9306      	str	r3, [sp, #24]
 800164a:	9b06      	ldr	r3, [sp, #24]
    GPIO_InitStruct.Pin = LCD_B0_Pin;
 800164c:	2310      	movs	r3, #16
 800164e:	9307      	str	r3, [sp, #28]
    GPIO_InitStruct.Mode = GPIO_MODE_AF_PP;
 8001650:	2502      	movs	r5, #2
 8001652:	9508      	str	r5, [sp, #32]
    GPIO_InitStruct.Alternate = GPIO_AF14_LTDC;
 8001654:	260e      	movs	r6, #14
 8001656:	960b      	str	r6, [sp, #44]	; 0x2c
    HAL_GPIO_Init(LCD_B0_GPIO_Port, &GPIO_InitStruct);
 8001658:	a907      	add	r1, sp, #28
 800165a:	481d      	ldr	r0, [pc, #116]	; (80016d0 <HAL_LTDC_MspInit+0x110>)
 800165c:	f000 faf0 	bl	8001c40 <HAL_GPIO_Init>
    GPIO_InitStruct.Pin = LCD_B1_Pin|LCD_B2_Pin|LCD_B3_Pin|LCD_G4_Pin
 8001660:	f64e 73ff 	movw	r3, #61439	; 0xefff
 8001664:	9307      	str	r3, [sp, #28]
    GPIO_InitStruct.Mode = GPIO_MODE_AF_PP;
 8001666:	9508      	str	r5, [sp, #32]
    GPIO_InitStruct.Pull = GPIO_NOPULL;
 8001668:	2400      	movs	r4, #0
 800166a:	9409      	str	r4, [sp, #36]	; 0x24
    GPIO_InitStruct.Speed = GPIO_SPEED_FREQ_LOW;
 800166c:	940a      	str	r4, [sp, #40]	; 0x28
    GPIO_InitStruct.Alternate = GPIO_AF14_LTDC;
 800166e:	960b      	str	r6, [sp, #44]	; 0x2c
    HAL_GPIO_Init(GPIOJ, &GPIO_InitStruct);
 8001670:	a907      	add	r1, sp, #28
 8001672:	4818      	ldr	r0, [pc, #96]	; (80016d4 <HAL_LTDC_MspInit+0x114>)
 8001674:	f000 fae4 	bl	8001c40 <HAL_GPIO_Init>
    GPIO_InitStruct.Pin = LCD_DE_Pin|LCD_B7_Pin|LCD_B6_Pin|LCD_B5_Pin
 8001678:	23f7      	movs	r3, #247	; 0xf7
 800167a:	9307      	str	r3, [sp, #28]
    GPIO_InitStruct.Mode = GPIO_MODE_AF_PP;
 800167c:	9508      	str	r5, [sp, #32]
    GPIO_InitStruct.Pull = GPIO_NOPULL;
 800167e:	9409      	str	r4, [sp, #36]	; 0x24
    GPIO_InitStruct.Speed = GPIO_SPEED_FREQ_LOW;
 8001680:	940a      	str	r4, [sp, #40]	; 0x28
    GPIO_InitStruct.Alternate = GPIO_AF14_LTDC;
 8001682:	960b      	str	r6, [sp, #44]	; 0x2c
    HAL_GPIO_Init(GPIOK, &GPIO_InitStruct);
 8001684:	a907      	add	r1, sp, #28
 8001686:	4814      	ldr	r0, [pc, #80]	; (80016d8 <HAL_LTDC_MspInit+0x118>)
 8001688:	f000 fada 	bl	8001c40 <HAL_GPIO_Init>
    GPIO_InitStruct.Pin = LCD_B4_Pin;
 800168c:	f44f 5380 	mov.w	r3, #4096	; 0x1000
 8001690:	9307      	str	r3, [sp, #28]
    GPIO_InitStruct.Mode = GPIO_MODE_AF_PP;
 8001692:	9508      	str	r5, [sp, #32]
    GPIO_InitStruct.Pull = GPIO_NOPULL;
 8001694:	9409      	str	r4, [sp, #36]	; 0x24
    GPIO_InitStruct.Speed = GPIO_SPEED_FREQ_LOW;
 8001696:	940a      	str	r4, [sp, #40]	; 0x28
    GPIO_InitStruct.Alternate = GPIO_AF9_LTDC;
 8001698:	2309      	movs	r3, #9
 800169a:	930b      	str	r3, [sp, #44]	; 0x2c
    HAL_GPIO_Init(LCD_B4_GPIO_Port, &GPIO_InitStruct);
 800169c:	a907      	add	r1, sp, #28
 800169e:	480f      	ldr	r0, [pc, #60]	; (80016dc <HAL_LTDC_MspInit+0x11c>)
 80016a0:	f000 face 	bl	8001c40 <HAL_GPIO_Init>
    GPIO_InitStruct.Pin = LCD_HSYNC_Pin|LCD_VSYNC_Pin|LCD_R0_Pin|LCD_CLK_Pin;
 80016a4:	f44f 4346 	mov.w	r3, #50688	; 0xc600
 80016a8:	9307      	str	r3, [sp, #28]
    GPIO_InitStruct.Mode = GPIO_MODE_AF_PP;
 80016aa:	9508      	str	r5, [sp, #32]
    GPIO_InitStruct.Pull = GPIO_NOPULL;
 80016ac:	9409      	str	r4, [sp, #36]	; 0x24
    GPIO_InitStruct.Speed = GPIO_SPEED_FREQ_LOW;
 80016ae:	940a      	str	r4, [sp, #40]	; 0x28
    GPIO_InitStruct.Alternate = GPIO_AF14_LTDC;
 80016b0:	960b      	str	r6, [sp, #44]	; 0x2c
    HAL_GPIO_Init(GPIOI, &GPIO_InitStruct);
 80016b2:	a907      	add	r1, sp, #28
 80016b4:	480a      	ldr	r0, [pc, #40]	; (80016e0 <HAL_LTDC_MspInit+0x120>)
 80016b6:	f000 fac3 	bl	8001c40 <HAL_GPIO_Init>
    HAL_NVIC_SetPriority(LTDC_IRQn, 0, 0);
 80016ba:	4622      	mov	r2, r4
 80016bc:	4621      	mov	r1, r4
 80016be:	2058      	movs	r0, #88	; 0x58
 80016c0:	f000 f902 	bl	80018c8 <HAL_NVIC_SetPriority>
    HAL_NVIC_EnableIRQ(LTDC_IRQn);
 80016c4:	2058      	movs	r0, #88	; 0x58
 80016c6:	f000 f931 	bl	800192c <HAL_NVIC_EnableIRQ>
}
 80016ca:	e785      	b.n	80015d8 <HAL_LTDC_MspInit+0x18>
 80016cc:	40016800 	.word	0x40016800
 80016d0:	40021000 	.word	0x40021000
 80016d4:	40022400 	.word	0x40022400
 80016d8:	40022800 	.word	0x40022800
 80016dc:	40021800 	.word	0x40021800
 80016e0:	40022000 	.word	0x40022000

080016e4 <HAL_RTC_MspInit>:
  if(hrtc->Instance==RTC)
 80016e4:	6802      	ldr	r2, [r0, #0]
 80016e6:	4b05      	ldr	r3, [pc, #20]	; (80016fc <HAL_RTC_MspInit+0x18>)
 80016e8:	429a      	cmp	r2, r3
 80016ea:	d000      	beq.n	80016ee <HAL_RTC_MspInit+0xa>
}
 80016ec:	4770      	bx	lr
    __HAL_RCC_RTC_ENABLE();
 80016ee:	4a04      	ldr	r2, [pc, #16]	; (8001700 <HAL_RTC_MspInit+0x1c>)
 80016f0:	6f13      	ldr	r3, [r2, #112]	; 0x70
 80016f2:	f443 4300 	orr.w	r3, r3, #32768	; 0x8000
 80016f6:	6713      	str	r3, [r2, #112]	; 0x70
}
 80016f8:	e7f8      	b.n	80016ec <HAL_RTC_MspInit+0x8>
 80016fa:	bf00      	nop
 80016fc:	40002800 	.word	0x40002800
 8001700:	40023800 	.word	0x40023800

08001704 <HAL_SDRAM_MspInit>:

void HAL_SDRAM_MspInit(SDRAM_HandleTypeDef* hsdram){
 8001704:	b508      	push	{r3, lr}
  /* USER CODE BEGIN SDRAM_MspInit 0 */

  /* USER CODE END SDRAM_MspInit 0 */
  HAL_FMC_MspInit();
 8001706:	f7ff fe7d 	bl	8001404 <HAL_FMC_MspInit>
  /* USER CODE BEGIN SDRAM_MspInit 1 */

  /* USER CODE END SDRAM_MspInit 1 */
}
 800170a:	bd08      	pop	{r3, pc}

0800170c <HAL_InitTick>:
  *         reset by HAL_Init() or at any time when clock is configured, by HAL_RCC_ClockConfig().
  * @param  TickPriority: Tick interrupt priority.
  * @retval HAL status
  */
HAL_StatusTypeDef HAL_InitTick(uint32_t TickPriority)
{
 800170c:	b500      	push	{lr}
 800170e:	b089      	sub	sp, #36	; 0x24
  RCC_ClkInitTypeDef    clkconfig;
  uint32_t              uwTimclock = 0;
  uint32_t              uwPrescalerValue = 0;
  uint32_t              pFLatency;
  /*Configure the TIM6 IRQ priority */
  HAL_NVIC_SetPriority(TIM6_DAC_IRQn, TickPriority ,0);
 8001710:	2200      	movs	r2, #0
 8001712:	4601      	mov	r1, r0
 8001714:	2036      	movs	r0, #54	; 0x36
 8001716:	f000 f8d7 	bl	80018c8 <HAL_NVIC_SetPriority>

  /* Enable the TIM6 global Interrupt */
  HAL_NVIC_EnableIRQ(TIM6_DAC_IRQn);
 800171a:	2036      	movs	r0, #54	; 0x36
 800171c:	f000 f906 	bl	800192c <HAL_NVIC_EnableIRQ>

  /* Enable TIM6 clock */
  __HAL_RCC_TIM6_CLK_ENABLE();
 8001720:	4b15      	ldr	r3, [pc, #84]	; (8001778 <HAL_InitTick+0x6c>)
 8001722:	6c1a      	ldr	r2, [r3, #64]	; 0x40
 8001724:	f042 0210 	orr.w	r2, r2, #16
 8001728:	641a      	str	r2, [r3, #64]	; 0x40
 800172a:	6c1b      	ldr	r3, [r3, #64]	; 0x40
 800172c:	f003 0310 	and.w	r3, r3, #16
 8001730:	9301      	str	r3, [sp, #4]
 8001732:	9b01      	ldr	r3, [sp, #4]

  /* Get clock configuration */
  HAL_RCC_GetClockConfig(&clkconfig, &pFLatency);
 8001734:	a902      	add	r1, sp, #8
 8001736:	a803      	add	r0, sp, #12
 8001738:	f001 f9b0 	bl	8002a9c <HAL_RCC_GetClockConfig>

  /* Compute TIM6 clock */
  uwTimclock = 2*HAL_RCC_GetPCLK1Freq();
 800173c:	f001 f99e 	bl	8002a7c <HAL_RCC_GetPCLK1Freq>
 8001740:	0043      	lsls	r3, r0, #1
  /* Compute the prescaler value to have TIM6 counter clock equal to 1MHz */
  uwPrescalerValue = (uint32_t) ((uwTimclock / 1000000U) - 1U);
 8001742:	480e      	ldr	r0, [pc, #56]	; (800177c <HAL_InitTick+0x70>)
 8001744:	fba0 2303 	umull	r2, r3, r0, r3
 8001748:	0c9b      	lsrs	r3, r3, #18
 800174a:	3b01      	subs	r3, #1

  /* Initialize TIM6 */
  htim6.Instance = TIM6;
 800174c:	480c      	ldr	r0, [pc, #48]	; (8001780 <HAL_InitTick+0x74>)
 800174e:	4a0d      	ldr	r2, [pc, #52]	; (8001784 <HAL_InitTick+0x78>)
 8001750:	6002      	str	r2, [r0, #0]
  + Period = [(TIM6CLK/1000) - 1]. to have a (1/1000) s time base.
  + Prescaler = (uwTimclock/1000000 - 1) to have a 1MHz counter clock.
  + ClockDivision = 0
  + Counter direction = Up
  */
  htim6.Init.Period = (1000000U / 1000U) - 1U;
 8001752:	f240 32e7 	movw	r2, #999	; 0x3e7
 8001756:	60c2      	str	r2, [r0, #12]
  htim6.Init.Prescaler = uwPrescalerValue;
 8001758:	6043      	str	r3, [r0, #4]
  htim6.Init.ClockDivision = 0;
 800175a:	2300      	movs	r3, #0
 800175c:	6103      	str	r3, [r0, #16]
  htim6.Init.CounterMode = TIM_COUNTERMODE_UP;
 800175e:	6083      	str	r3, [r0, #8]

  if(HAL_TIM_Base_Init(&htim6) == HAL_OK)
 8001760:	f002 f8be 	bl	80038e0 <HAL_TIM_Base_Init>
 8001764:	b118      	cbz	r0, 800176e <HAL_InitTick+0x62>
    /* Start the TIM time Base generation in interrupt mode */
    return HAL_TIM_Base_Start_IT(&htim6);
  }

  /* Return function status */
  return HAL_ERROR;
 8001766:	2001      	movs	r0, #1
}
 8001768:	b009      	add	sp, #36	; 0x24
 800176a:	f85d fb04 	ldr.w	pc, [sp], #4
    return HAL_TIM_Base_Start_IT(&htim6);
 800176e:	4804      	ldr	r0, [pc, #16]	; (8001780 <HAL_InitTick+0x74>)
 8001770:	f001 ff16 	bl	80035a0 <HAL_TIM_Base_Start_IT>
 8001774:	e7f8      	b.n	8001768 <HAL_InitTick+0x5c>
 8001776:	bf00      	nop
 8001778:	40023800 	.word	0x40023800
 800177c:	431bde83 	.word	0x431bde83
 8001780:	2003fe60 	.word	0x2003fe60
 8001784:	40001000 	.word	0x40001000

08001788 <NMI_Handler>:
/******************************************************************************/
/**
  * @brief This function handles Non maskable interrupt.
  */
void NMI_Handler(void)
{
 8001788:	e7fe      	b.n	8001788 <NMI_Handler>

0800178a <HardFault_Handler>:

/**
  * @brief This function handles Hard fault interrupt.
  */
void HardFault_Handler(void)
{
 800178a:	e7fe      	b.n	800178a <HardFault_Handler>

0800178c <MemManage_Handler>:

/**
  * @brief This function handles Memory management fault.
  */
void MemManage_Handler(void)
{
 800178c:	e7fe      	b.n	800178c <MemManage_Handler>

0800178e <BusFault_Handler>:

/**
  * @brief This function handles Pre-fetch fault, memory access fault.
  */
void BusFault_Handler(void)
{
 800178e:	e7fe      	b.n	800178e <BusFault_Handler>

08001790 <UsageFault_Handler>:

/**
  * @brief This function handles Undefined instruction or illegal state.
  */
void UsageFault_Handler(void)
{
 8001790:	e7fe      	b.n	8001790 <UsageFault_Handler>

08001792 <SVC_Handler>:

  /* USER CODE END SVCall_IRQn 0 */
  /* USER CODE BEGIN SVCall_IRQn 1 */

  /* USER CODE END SVCall_IRQn 1 */
}
 8001792:	4770      	bx	lr

08001794 <DebugMon_Handler>:

  /* USER CODE END DebugMonitor_IRQn 0 */
  /* USER CODE BEGIN DebugMonitor_IRQn 1 */

  /* USER CODE END DebugMonitor_IRQn 1 */
}
 8001794:	4770      	bx	lr

08001796 <PendSV_Handler>:

  /* USER CODE END PendSV_IRQn 0 */
  /* USER CODE BEGIN PendSV_IRQn 1 */

  /* USER CODE END PendSV_IRQn 1 */
}
 8001796:	4770      	bx	lr

08001798 <SysTick_Handler>:
  /* USER CODE END SysTick_IRQn 0 */

  /* USER CODE BEGIN SysTick_IRQn 1 */

  /* USER CODE END SysTick_IRQn 1 */
}
 8001798:	4770      	bx	lr
	...

0800179c <TIM6_DAC_IRQHandler>:

/**
  * @brief This function handles TIM6 global interrupt, DAC1 and DAC2 underrun error interrupts.
  */
void TIM6_DAC_IRQHandler(void)
{
 800179c:	b508      	push	{r3, lr}
  /* USER CODE BEGIN TIM6_DAC_IRQn 0 */

  /* USER CODE END TIM6_DAC_IRQn 0 */
  HAL_TIM_IRQHandler(&htim6);
 800179e:	4802      	ldr	r0, [pc, #8]	; (80017a8 <TIM6_DAC_IRQHandler+0xc>)
 80017a0:	f001 ff4a 	bl	8003638 <HAL_TIM_IRQHandler>
  /* USER CODE BEGIN TIM6_DAC_IRQn 1 */

  /* USER CODE END TIM6_DAC_IRQn 1 */
}
 80017a4:	bd08      	pop	{r3, pc}
 80017a6:	bf00      	nop
 80017a8:	2003fe60 	.word	0x2003fe60

080017ac <LTDC_IRQHandler>:

/**
  * @brief This function handles LTDC global interrupt.
  */
void LTDC_IRQHandler(void)
{
 80017ac:	b508      	push	{r3, lr}
  /* USER CODE BEGIN LTDC_IRQn 0 */

  /* USER CODE END LTDC_IRQn 0 */
  HAL_LTDC_IRQHandler(&hltdc);
 80017ae:	4802      	ldr	r0, [pc, #8]	; (80017b8 <LTDC_IRQHandler+0xc>)
 80017b0:	f000 fd39 	bl	8002226 <HAL_LTDC_IRQHandler>
  /* USER CODE BEGIN LTDC_IRQn 1 */

  /* USER CODE END LTDC_IRQn 1 */
}
 80017b4:	bd08      	pop	{r3, pc}
 80017b6:	bf00      	nop
 80017b8:	2003fd24 	.word	0x2003fd24

080017bc <DMA2D_IRQHandler>:

/**
  * @brief This function handles DMA2D global interrupt.
  */
void DMA2D_IRQHandler(void)
{
 80017bc:	b508      	push	{r3, lr}
  /* USER CODE BEGIN DMA2D_IRQn 0 */

  /* USER CODE END DMA2D_IRQn 0 */
  HAL_DMA2D_IRQHandler(&hdma2d);
 80017be:	4802      	ldr	r0, [pc, #8]	; (80017c8 <DMA2D_IRQHandler+0xc>)
 80017c0:	f000 f93e 	bl	8001a40 <HAL_DMA2D_IRQHandler>
  /* USER CODE BEGIN DMA2D_IRQn 1 */

  /* USER CODE END DMA2D_IRQn 1 */
}
 80017c4:	bd08      	pop	{r3, pc}
 80017c6:	bf00      	nop
 80017c8:	2003fdec 	.word	0x2003fdec

080017cc <SystemInit>:
  */
void SystemInit(void)
{
  /* FPU settings ------------------------------------------------------------*/
#if (__FPU_PRESENT == 1) && (__FPU_USED == 1)
  SCB->CPACR |= ((3UL << 10*2)|(3UL << 11*2));  /* set CP10 and CP11 Full Access */
 80017cc:	4a03      	ldr	r2, [pc, #12]	; (80017dc <SystemInit+0x10>)
 80017ce:	f8d2 3088 	ldr.w	r3, [r2, #136]	; 0x88
 80017d2:	f443 0370 	orr.w	r3, r3, #15728640	; 0xf00000
 80017d6:	f8c2 3088 	str.w	r3, [r2, #136]	; 0x88

  /* Configure the Vector Table location -------------------------------------*/
#if defined(USER_VECT_TAB_ADDRESS)
  SCB->VTOR = VECT_TAB_BASE_ADDRESS | VECT_TAB_OFFSET; /* Vector Table Relocation in Internal SRAM */
#endif /* USER_VECT_TAB_ADDRESS */
}
 80017da:	4770      	bx	lr
 80017dc:	e000ed00 	.word	0xe000ed00

080017e0 <Reset_Handler>:

    .section  .text.Reset_Handler
  .weak  Reset_Handler
  .type  Reset_Handler, %function
Reset_Handler:  
  ldr   sp, =_estack      /* set stack pointer */
 80017e0:	f8df d034 	ldr.w	sp, [pc, #52]	; 8001818 <LoopFillZerobss+0x12>

/* Copy the data segment initializers from flash to SRAM */  
  ldr r0, =_sdata
 80017e4:	480d      	ldr	r0, [pc, #52]	; (800181c <LoopFillZerobss+0x16>)
  ldr r1, =_edata
 80017e6:	490e      	ldr	r1, [pc, #56]	; (8001820 <LoopFillZerobss+0x1a>)
  ldr r2, =_sidata
 80017e8:	4a0e      	ldr	r2, [pc, #56]	; (8001824 <LoopFillZerobss+0x1e>)
  movs r3, #0
 80017ea:	2300      	movs	r3, #0
  b LoopCopyDataInit
 80017ec:	e002      	b.n	80017f4 <LoopCopyDataInit>

080017ee <CopyDataInit>:

CopyDataInit:
  ldr r4, [r2, r3]
 80017ee:	58d4      	ldr	r4, [r2, r3]
  str r4, [r0, r3]
 80017f0:	50c4      	str	r4, [r0, r3]
  adds r3, r3, #4
 80017f2:	3304      	adds	r3, #4

080017f4 <LoopCopyDataInit>:

LoopCopyDataInit:
  adds r4, r0, r3
 80017f4:	18c4      	adds	r4, r0, r3
  cmp r4, r1
 80017f6:	428c      	cmp	r4, r1
  bcc CopyDataInit
 80017f8:	d3f9      	bcc.n	80017ee <CopyDataInit>
  
/* Zero fill the bss segment. */
  ldr r2, =_sbss
 80017fa:	4a0b      	ldr	r2, [pc, #44]	; (8001828 <LoopFillZerobss+0x22>)
  ldr r4, =_ebss
 80017fc:	4c0b      	ldr	r4, [pc, #44]	; (800182c <LoopFillZerobss+0x26>)
  movs r3, #0
 80017fe:	2300      	movs	r3, #0
  b LoopFillZerobss
 8001800:	e001      	b.n	8001806 <LoopFillZerobss>

08001802 <FillZerobss>:

FillZerobss:
  str  r3, [r2]
 8001802:	6013      	str	r3, [r2, #0]
  adds r2, r2, #4
 8001804:	3204      	adds	r2, #4

08001806 <LoopFillZerobss>:

LoopFillZerobss:
  cmp r2, r4
 8001806:	42a2      	cmp	r2, r4
  bcc FillZerobss
 8001808:	d3fb      	bcc.n	8001802 <FillZerobss>

/* Call the clock system initialization function.*/
  bl  SystemInit   
 800180a:	f7ff ffdf 	bl	80017cc <SystemInit>
/* Call static constructors */
    bl __libc_init_array
 800180e:	f002 f91f 	bl	8003a50 <__libc_init_array>
/* Call the application's entry point.*/
  bl  main
 8001812:	f7ff fddd 	bl	80013d0 <main>
  bx  lr    
 8001816:	4770      	bx	lr
  ldr   sp, =_estack      /* set stack pointer */
 8001818:	20050000 	.word	0x20050000
  ldr r0, =_sdata
 800181c:	20000000 	.word	0x20000000
  ldr r1, =_edata
 8001820:	2000000c 	.word	0x2000000c
  ldr r2, =_sidata
 8001824:	08003ae8 	.word	0x08003ae8
  ldr r2, =_sbss
 8001828:	2000000c 	.word	0x2000000c
  ldr r4, =_ebss
 800182c:	2003feb0 	.word	0x2003feb0

08001830 <ADC_IRQHandler>:
 * @retval None       
*/
    .section  .text.Default_Handler,"ax",%progbits
Default_Handler:
Infinite_Loop:
  b  Infinite_Loop
 8001830:	e7fe      	b.n	8001830 <ADC_IRQHandler>
	...

08001834 <HAL_Init>:
  *         need to ensure that the SysTick time base is always set to 1 millisecond
  *         to have correct HAL operation.
  * @retval HAL status
  */
HAL_StatusTypeDef HAL_Init(void)
{
 8001834:	b508      	push	{r3, lr}
  /* Configure Instruction cache through ART accelerator */ 
#if (ART_ACCLERATOR_ENABLE != 0)
   __HAL_FLASH_ART_ENABLE();
 8001836:	4a07      	ldr	r2, [pc, #28]	; (8001854 <HAL_Init+0x20>)
 8001838:	6813      	ldr	r3, [r2, #0]
 800183a:	f443 7300 	orr.w	r3, r3, #512	; 0x200
 800183e:	6013      	str	r3, [r2, #0]
#if (PREFETCH_ENABLE != 0U)
  __HAL_FLASH_PREFETCH_BUFFER_ENABLE();
#endif /* PREFETCH_ENABLE */

  /* Set Interrupt Group Priority */
  HAL_NVIC_SetPriorityGrouping(NVIC_PRIORITYGROUP_4);
 8001840:	2003      	movs	r0, #3
 8001842:	f000 f82f 	bl	80018a4 <HAL_NVIC_SetPriorityGrouping>

  /* Use systick as time base source and configure 1ms tick (default clock after Reset is HSI) */
  HAL_InitTick(TICK_INT_PRIORITY);
 8001846:	2000      	movs	r0, #0
 8001848:	f7ff ff60 	bl	800170c <HAL_InitTick>
  
  /* Init the low level hardware */
  HAL_MspInit();
 800184c:	f7ff fe48 	bl	80014e0 <HAL_MspInit>
  
  /* Return function status */
  return HAL_OK;
}
 8001850:	2000      	movs	r0, #0
 8001852:	bd08      	pop	{r3, pc}
 8001854:	40023c00 	.word	0x40023c00

08001858 <HAL_IncTick>:
  *      implementations in user file.
  * @retval None
  */
__weak void HAL_IncTick(void)
{
  uwTick += uwTickFreq;
 8001858:	4a03      	ldr	r2, [pc, #12]	; (8001868 <HAL_IncTick+0x10>)
 800185a:	6811      	ldr	r1, [r2, #0]
 800185c:	4b03      	ldr	r3, [pc, #12]	; (800186c <HAL_IncTick+0x14>)
 800185e:	781b      	ldrb	r3, [r3, #0]
 8001860:	440b      	add	r3, r1
 8001862:	6013      	str	r3, [r2, #0]
}
 8001864:	4770      	bx	lr
 8001866:	bf00      	nop
 8001868:	2003feac 	.word	0x2003feac
 800186c:	20000004 	.word	0x20000004

08001870 <HAL_GetTick>:
  *       implementations in user file.
  * @retval tick value
  */
__weak uint32_t HAL_GetTick(void)
{
  return uwTick;
 8001870:	4b01      	ldr	r3, [pc, #4]	; (8001878 <HAL_GetTick+0x8>)
 8001872:	6818      	ldr	r0, [r3, #0]
}
 8001874:	4770      	bx	lr
 8001876:	bf00      	nop
 8001878:	2003feac 	.word	0x2003feac

0800187c <HAL_Delay>:
  *       implementations in user file.
  * @param Delay  specifies the delay time length, in milliseconds.
  * @retval None
  */
__weak void HAL_Delay(uint32_t Delay)
{
 800187c:	b538      	push	{r3, r4, r5, lr}
 800187e:	4604      	mov	r4, r0
  uint32_t tickstart = HAL_GetTick();
 8001880:	f7ff fff6 	bl	8001870 <HAL_GetTick>
 8001884:	4605      	mov	r5, r0
  uint32_t wait = Delay;

  /* Add a freq to guarantee minimum wait */
  if (wait < HAL_MAX_DELAY)
 8001886:	f1b4 3fff 	cmp.w	r4, #4294967295
 800188a:	d002      	beq.n	8001892 <HAL_Delay+0x16>
  {
    wait += (uint32_t)(uwTickFreq);
 800188c:	4b04      	ldr	r3, [pc, #16]	; (80018a0 <HAL_Delay+0x24>)
 800188e:	781b      	ldrb	r3, [r3, #0]
 8001890:	441c      	add	r4, r3
  }

  while ((HAL_GetTick() - tickstart) < wait)
 8001892:	f7ff ffed 	bl	8001870 <HAL_GetTick>
 8001896:	1b40      	subs	r0, r0, r5
 8001898:	42a0      	cmp	r0, r4
 800189a:	d3fa      	bcc.n	8001892 <HAL_Delay+0x16>
  {
  }
}
 800189c:	bd38      	pop	{r3, r4, r5, pc}
 800189e:	bf00      	nop
 80018a0:	20000004 	.word	0x20000004

080018a4 <HAL_NVIC_SetPriorityGrouping>:
__STATIC_INLINE void __NVIC_SetPriorityGrouping(uint32_t PriorityGroup)
{
  uint32_t reg_value;
  uint32_t PriorityGroupTmp = (PriorityGroup & (uint32_t)0x07UL);             /* only values 0..7 are used          */

  reg_value  =  SCB->AIRCR;                                                   /* read old register configuration    */
 80018a4:	4906      	ldr	r1, [pc, #24]	; (80018c0 <HAL_NVIC_SetPriorityGrouping+0x1c>)
 80018a6:	68cb      	ldr	r3, [r1, #12]
  reg_value &= ~((uint32_t)(SCB_AIRCR_VECTKEY_Msk | SCB_AIRCR_PRIGROUP_Msk)); /* clear bits to change               */
 80018a8:	f423 63e0 	bic.w	r3, r3, #1792	; 0x700
 80018ac:	041b      	lsls	r3, r3, #16
 80018ae:	0c1b      	lsrs	r3, r3, #16
  reg_value  =  (reg_value                                   |
                ((uint32_t)0x5FAUL << SCB_AIRCR_VECTKEY_Pos) |
                (PriorityGroupTmp << SCB_AIRCR_PRIGROUP_Pos)  );              /* Insert write key and priority group */
 80018b0:	0200      	lsls	r0, r0, #8
 80018b2:	f400 60e0 	and.w	r0, r0, #1792	; 0x700
                ((uint32_t)0x5FAUL << SCB_AIRCR_VECTKEY_Pos) |
 80018b6:	4303      	orrs	r3, r0
  reg_value  =  (reg_value                                   |
 80018b8:	4a02      	ldr	r2, [pc, #8]	; (80018c4 <HAL_NVIC_SetPriorityGrouping+0x20>)
 80018ba:	431a      	orrs	r2, r3
  SCB->AIRCR =  reg_value;
 80018bc:	60ca      	str	r2, [r1, #12]
  /* Check the parameters */
  assert_param(IS_NVIC_PRIORITY_GROUP(PriorityGroup));
  
  /* Set the PRIGROUP[10:8] bits according to the PriorityGroup parameter value */
  NVIC_SetPriorityGrouping(PriorityGroup);
}
 80018be:	4770      	bx	lr
 80018c0:	e000ed00 	.word	0xe000ed00
 80018c4:	05fa0000 	.word	0x05fa0000

080018c8 <HAL_NVIC_SetPriority>:
  *         This parameter can be a value between 0 and 15
  *         A lower priority value indicates a higher priority.          
  * @retval None
  */
void HAL_NVIC_SetPriority(IRQn_Type IRQn, uint32_t PreemptPriority, uint32_t SubPriority)
{ 
 80018c8:	b430      	push	{r4, r5}
  \details Reads the priority grouping field from the NVIC Interrupt Controller.
  \return                Priority grouping field (SCB->AIRCR [10:8] PRIGROUP field).
 */
__STATIC_INLINE uint32_t __NVIC_GetPriorityGrouping(void)
{
  return ((uint32_t)((SCB->AIRCR & SCB_AIRCR_PRIGROUP_Msk) >> SCB_AIRCR_PRIGROUP_Pos));
 80018ca:	4b15      	ldr	r3, [pc, #84]	; (8001920 <HAL_NVIC_SetPriority+0x58>)
 80018cc:	68db      	ldr	r3, [r3, #12]
 80018ce:	f3c3 2302 	ubfx	r3, r3, #8, #3
{
  uint32_t PriorityGroupTmp = (PriorityGroup & (uint32_t)0x07UL);   /* only values 0..7 are used          */
  uint32_t PreemptPriorityBits;
  uint32_t SubPriorityBits;

  PreemptPriorityBits = ((7UL - PriorityGroupTmp) > (uint32_t)(__NVIC_PRIO_BITS)) ? (uint32_t)(__NVIC_PRIO_BITS) : (uint32_t)(7UL - PriorityGroupTmp);
 80018d2:	f1c3 0407 	rsb	r4, r3, #7
 80018d6:	2c04      	cmp	r4, #4
 80018d8:	bf28      	it	cs
 80018da:	2404      	movcs	r4, #4
  SubPriorityBits     = ((PriorityGroupTmp + (uint32_t)(__NVIC_PRIO_BITS)) < (uint32_t)7UL) ? (uint32_t)0UL : (uint32_t)((PriorityGroupTmp - 7UL) + (uint32_t)(__NVIC_PRIO_BITS));
 80018dc:	1d1d      	adds	r5, r3, #4
 80018de:	2d06      	cmp	r5, #6
 80018e0:	d914      	bls.n	800190c <HAL_NVIC_SetPriority+0x44>
 80018e2:	3b03      	subs	r3, #3

  return (
           ((PreemptPriority & (uint32_t)((1UL << (PreemptPriorityBits)) - 1UL)) << SubPriorityBits) |
 80018e4:	f04f 35ff 	mov.w	r5, #4294967295
 80018e8:	fa05 f404 	lsl.w	r4, r5, r4
 80018ec:	ea21 0104 	bic.w	r1, r1, r4
 80018f0:	4099      	lsls	r1, r3
           ((SubPriority     & (uint32_t)((1UL << (SubPriorityBits    )) - 1UL)))
 80018f2:	fa05 f303 	lsl.w	r3, r5, r3
 80018f6:	ea22 0303 	bic.w	r3, r2, r3
           ((PreemptPriority & (uint32_t)((1UL << (PreemptPriorityBits)) - 1UL)) << SubPriorityBits) |
 80018fa:	4319      	orrs	r1, r3
  if ((int32_t)(IRQn) >= 0)
 80018fc:	2800      	cmp	r0, #0
 80018fe:	db07      	blt.n	8001910 <HAL_NVIC_SetPriority+0x48>
    NVIC->IP[((uint32_t)IRQn)]                = (uint8_t)((priority << (8U - __NVIC_PRIO_BITS)) & (uint32_t)0xFFUL);
 8001900:	0109      	lsls	r1, r1, #4
 8001902:	b2c9      	uxtb	r1, r1
 8001904:	4b07      	ldr	r3, [pc, #28]	; (8001924 <HAL_NVIC_SetPriority+0x5c>)
 8001906:	5419      	strb	r1, [r3, r0]
  assert_param(IS_NVIC_PREEMPTION_PRIORITY(PreemptPriority));
  
  prioritygroup = NVIC_GetPriorityGrouping();
  
  NVIC_SetPriority(IRQn, NVIC_EncodePriority(prioritygroup, PreemptPriority, SubPriority));
}
 8001908:	bc30      	pop	{r4, r5}
 800190a:	4770      	bx	lr
  SubPriorityBits     = ((PriorityGroupTmp + (uint32_t)(__NVIC_PRIO_BITS)) < (uint32_t)7UL) ? (uint32_t)0UL : (uint32_t)((PriorityGroupTmp - 7UL) + (uint32_t)(__NVIC_PRIO_BITS));
 800190c:	2300      	movs	r3, #0
 800190e:	e7e9      	b.n	80018e4 <HAL_NVIC_SetPriority+0x1c>
    SCB->SHPR[(((uint32_t)IRQn) & 0xFUL)-4UL] = (uint8_t)((priority << (8U - __NVIC_PRIO_BITS)) & (uint32_t)0xFFUL);
 8001910:	f000 000f 	and.w	r0, r0, #15
 8001914:	0109      	lsls	r1, r1, #4
 8001916:	b2c9      	uxtb	r1, r1
 8001918:	4b03      	ldr	r3, [pc, #12]	; (8001928 <HAL_NVIC_SetPriority+0x60>)
 800191a:	5419      	strb	r1, [r3, r0]
 800191c:	e7f4      	b.n	8001908 <HAL_NVIC_SetPriority+0x40>
 800191e:	bf00      	nop
 8001920:	e000ed00 	.word	0xe000ed00
 8001924:	e000e400 	.word	0xe000e400
 8001928:	e000ed14 	.word	0xe000ed14

0800192c <HAL_NVIC_EnableIRQ>:
  if ((int32_t)(IRQn) >= 0)
 800192c:	2800      	cmp	r0, #0
 800192e:	db07      	blt.n	8001940 <HAL_NVIC_EnableIRQ+0x14>
    NVIC->ISER[(((uint32_t)IRQn) >> 5UL)] = (uint32_t)(1UL << (((uint32_t)IRQn) & 0x1FUL));
 8001930:	f000 021f 	and.w	r2, r0, #31
 8001934:	0940      	lsrs	r0, r0, #5
 8001936:	2301      	movs	r3, #1
 8001938:	4093      	lsls	r3, r2
 800193a:	4a02      	ldr	r2, [pc, #8]	; (8001944 <HAL_NVIC_EnableIRQ+0x18>)
 800193c:	f842 3020 	str.w	r3, [r2, r0, lsl #2]
  /* Check the parameters */
  assert_param(IS_NVIC_DEVICE_IRQ(IRQn));
  
  /* Enable interrupt */
  NVIC_EnableIRQ(IRQn);
}
 8001940:	4770      	bx	lr
 8001942:	bf00      	nop
 8001944:	e000e100 	.word	0xe000e100

08001948 <HAL_MPU_Disable>:
  \details Ensures the apparent order of the explicit memory operations before
           and after the instruction, without ensuring their completion.
 */
__STATIC_FORCEINLINE void __DMB(void)
{
  __ASM volatile ("dmb 0xF":::"memory");
 8001948:	f3bf 8f5f 	dmb	sy
{
  /* Make sure outstanding transfers are done */
  __DMB();

  /* Disable fault exceptions */
  SCB->SHCSR &= ~SCB_SHCSR_MEMFAULTENA_Msk;
 800194c:	4a04      	ldr	r2, [pc, #16]	; (8001960 <HAL_MPU_Disable+0x18>)
 800194e:	6a53      	ldr	r3, [r2, #36]	; 0x24
 8001950:	f423 3380 	bic.w	r3, r3, #65536	; 0x10000
 8001954:	6253      	str	r3, [r2, #36]	; 0x24
  
  /* Disable the MPU and clear the control register*/
  MPU->CTRL = 0;
 8001956:	4b03      	ldr	r3, [pc, #12]	; (8001964 <HAL_MPU_Disable+0x1c>)
 8001958:	2200      	movs	r2, #0
 800195a:	605a      	str	r2, [r3, #4]
}
 800195c:	4770      	bx	lr
 800195e:	bf00      	nop
 8001960:	e000ed00 	.word	0xe000ed00
 8001964:	e000ed90 	.word	0xe000ed90

08001968 <HAL_MPU_Enable>:
  * @retval None
  */
void HAL_MPU_Enable(uint32_t MPU_Control)
{
  /* Enable the MPU */
  MPU->CTRL = MPU_Control | MPU_CTRL_ENABLE_Msk;
 8001968:	f040 0001 	orr.w	r0, r0, #1
 800196c:	4b05      	ldr	r3, [pc, #20]	; (8001984 <HAL_MPU_Enable+0x1c>)
 800196e:	6058      	str	r0, [r3, #4]
  
  /* Enable fault exceptions */
  SCB->SHCSR |= SCB_SHCSR_MEMFAULTENA_Msk;
 8001970:	4a05      	ldr	r2, [pc, #20]	; (8001988 <HAL_MPU_Enable+0x20>)
 8001972:	6a53      	ldr	r3, [r2, #36]	; 0x24
 8001974:	f443 3380 	orr.w	r3, r3, #65536	; 0x10000
 8001978:	6253      	str	r3, [r2, #36]	; 0x24
  __ASM volatile ("dsb 0xF":::"memory");
 800197a:	f3bf 8f4f 	dsb	sy
  __ASM volatile ("isb 0xF":::"memory");
 800197e:	f3bf 8f6f 	isb	sy
  
  /* Ensure MPU setting take effects */
  __DSB();
  __ISB();
}
 8001982:	4770      	bx	lr
 8001984:	e000ed90 	.word	0xe000ed90
 8001988:	e000ed00 	.word	0xe000ed00

0800198c <HAL_MPU_ConfigRegion>:
  /* Check the parameters */
  assert_param(IS_MPU_REGION_NUMBER(MPU_Init->Number));
  assert_param(IS_MPU_REGION_ENABLE(MPU_Init->Enable));

  /* Set the Region number */
  MPU->RNR = MPU_Init->Number;
 800198c:	7842      	ldrb	r2, [r0, #1]
 800198e:	4b13      	ldr	r3, [pc, #76]	; (80019dc <HAL_MPU_ConfigRegion+0x50>)
 8001990:	609a      	str	r2, [r3, #8]

  if ((MPU_Init->Enable) != RESET)
 8001992:	7803      	ldrb	r3, [r0, #0]
 8001994:	b923      	cbnz	r3, 80019a0 <HAL_MPU_ConfigRegion+0x14>
                ((uint32_t)MPU_Init->Size                    << MPU_RASR_SIZE_Pos) |
                ((uint32_t)MPU_Init->Enable                  << MPU_RASR_ENABLE_Pos);
  }
  else
  {
    MPU->RBAR = 0x00;
 8001996:	4b11      	ldr	r3, [pc, #68]	; (80019dc <HAL_MPU_ConfigRegion+0x50>)
 8001998:	2200      	movs	r2, #0
 800199a:	60da      	str	r2, [r3, #12]
    MPU->RASR = 0x00;
 800199c:	611a      	str	r2, [r3, #16]
  }
}
 800199e:	4770      	bx	lr
    MPU->RBAR = MPU_Init->BaseAddress;
 80019a0:	6843      	ldr	r3, [r0, #4]
 80019a2:	4a0e      	ldr	r2, [pc, #56]	; (80019dc <HAL_MPU_ConfigRegion+0x50>)
 80019a4:	60d3      	str	r3, [r2, #12]
    MPU->RASR = ((uint32_t)MPU_Init->DisableExec             << MPU_RASR_XN_Pos)   |
 80019a6:	7b01      	ldrb	r1, [r0, #12]
                ((uint32_t)MPU_Init->AccessPermission        << MPU_RASR_AP_Pos)   |
 80019a8:	7ac3      	ldrb	r3, [r0, #11]
 80019aa:	061b      	lsls	r3, r3, #24
    MPU->RASR = ((uint32_t)MPU_Init->DisableExec             << MPU_RASR_XN_Pos)   |
 80019ac:	ea43 7301 	orr.w	r3, r3, r1, lsl #28
                ((uint32_t)MPU_Init->TypeExtField            << MPU_RASR_TEX_Pos)  |
 80019b0:	7a81      	ldrb	r1, [r0, #10]
                ((uint32_t)MPU_Init->AccessPermission        << MPU_RASR_AP_Pos)   |
 80019b2:	ea43 43c1 	orr.w	r3, r3, r1, lsl #19
                ((uint32_t)MPU_Init->IsShareable             << MPU_RASR_S_Pos)    |
 80019b6:	7b41      	ldrb	r1, [r0, #13]
                ((uint32_t)MPU_Init->TypeExtField            << MPU_RASR_TEX_Pos)  |
 80019b8:	ea43 4381 	orr.w	r3, r3, r1, lsl #18
                ((uint32_t)MPU_Init->IsCacheable             << MPU_RASR_C_Pos)    |
 80019bc:	7b81      	ldrb	r1, [r0, #14]
                ((uint32_t)MPU_Init->IsShareable             << MPU_RASR_S_Pos)    |
 80019be:	ea43 4341 	orr.w	r3, r3, r1, lsl #17
                ((uint32_t)MPU_Init->IsBufferable            << MPU_RASR_B_Pos)    |
 80019c2:	7bc1      	ldrb	r1, [r0, #15]
                ((uint32_t)MPU_Init->IsCacheable             << MPU_RASR_C_Pos)    |
 80019c4:	ea43 4301 	orr.w	r3, r3, r1, lsl #16
                ((uint32_t)MPU_Init->SubRegionDisable        << MPU_RASR_SRD_Pos)  |
 80019c8:	7a41      	ldrb	r1, [r0, #9]
                ((uint32_t)MPU_Init->IsBufferable            << MPU_RASR_B_Pos)    |
 80019ca:	ea43 2301 	orr.w	r3, r3, r1, lsl #8
                ((uint32_t)MPU_Init->Size                    << MPU_RASR_SIZE_Pos) |
 80019ce:	7a01      	ldrb	r1, [r0, #8]
                ((uint32_t)MPU_Init->SubRegionDisable        << MPU_RASR_SRD_Pos)  |
 80019d0:	ea43 0341 	orr.w	r3, r3, r1, lsl #1
                ((uint32_t)MPU_Init->Enable                  << MPU_RASR_ENABLE_Pos);
 80019d4:	7801      	ldrb	r1, [r0, #0]
                ((uint32_t)MPU_Init->Size                    << MPU_RASR_SIZE_Pos) |
 80019d6:	430b      	orrs	r3, r1
    MPU->RASR = ((uint32_t)MPU_Init->DisableExec             << MPU_RASR_XN_Pos)   |
 80019d8:	6113      	str	r3, [r2, #16]
 80019da:	4770      	bx	lr
 80019dc:	e000ed90 	.word	0xe000ed90

080019e0 <HAL_DMA2D_Init>:
  * @retval HAL status
  */
HAL_StatusTypeDef HAL_DMA2D_Init(DMA2D_HandleTypeDef *hdma2d)
{
  /* Check the DMA2D peripheral state */
  if (hdma2d == NULL)
 80019e0:	b338      	cbz	r0, 8001a32 <HAL_DMA2D_Init+0x52>
{
 80019e2:	b510      	push	{r4, lr}
 80019e4:	4604      	mov	r4, r0

    /* Init the low level hardware */
    hdma2d->MspInitCallback(hdma2d);
  }
#else
  if (hdma2d->State == HAL_DMA2D_STATE_RESET)
 80019e6:	f890 3039 	ldrb.w	r3, [r0, #57]	; 0x39
 80019ea:	b1eb      	cbz	r3, 8001a28 <HAL_DMA2D_Init+0x48>
    HAL_DMA2D_MspInit(hdma2d);
  }
#endif /* (USE_HAL_DMA2D_REGISTER_CALLBACKS) */

  /* Change DMA2D peripheral state */
  hdma2d->State = HAL_DMA2D_STATE_BUSY;
 80019ec:	2302      	movs	r3, #2
 80019ee:	f884 3039 	strb.w	r3, [r4, #57]	; 0x39

  /* DMA2D CR register configuration -------------------------------------------*/
  MODIFY_REG(hdma2d->Instance->CR, DMA2D_CR_MODE, hdma2d->Init.Mode);
 80019f2:	6822      	ldr	r2, [r4, #0]
 80019f4:	6813      	ldr	r3, [r2, #0]
 80019f6:	f423 3340 	bic.w	r3, r3, #196608	; 0x30000
 80019fa:	6861      	ldr	r1, [r4, #4]
 80019fc:	430b      	orrs	r3, r1
 80019fe:	6013      	str	r3, [r2, #0]

  /* DMA2D OPFCCR register configuration ---------------------------------------*/
  MODIFY_REG(hdma2d->Instance->OPFCCR, DMA2D_OPFCCR_CM, hdma2d->Init.ColorMode);
 8001a00:	6822      	ldr	r2, [r4, #0]
 8001a02:	6b53      	ldr	r3, [r2, #52]	; 0x34
 8001a04:	f023 0307 	bic.w	r3, r3, #7
 8001a08:	68a1      	ldr	r1, [r4, #8]
 8001a0a:	430b      	orrs	r3, r1
 8001a0c:	6353      	str	r3, [r2, #52]	; 0x34

  /* DMA2D OOR register configuration ------------------------------------------*/
  MODIFY_REG(hdma2d->Instance->OOR, DMA2D_OOR_LO, hdma2d->Init.OutputOffset);
 8001a0e:	6822      	ldr	r2, [r4, #0]
 8001a10:	6c11      	ldr	r1, [r2, #64]	; 0x40
 8001a12:	4b09      	ldr	r3, [pc, #36]	; (8001a38 <HAL_DMA2D_Init+0x58>)
 8001a14:	400b      	ands	r3, r1
 8001a16:	68e1      	ldr	r1, [r4, #12]
 8001a18:	430b      	orrs	r3, r1
 8001a1a:	6413      	str	r3, [r2, #64]	; 0x40
              (hdma2d->Init.RedBlueSwap << DMA2D_OPFCCR_RBS_Pos)));
#endif /* DMA2D_ALPHA_INV_RB_SWAP_SUPPORT */


  /* Update error code */
  hdma2d->ErrorCode = HAL_DMA2D_ERROR_NONE;
 8001a1c:	2000      	movs	r0, #0
 8001a1e:	63e0      	str	r0, [r4, #60]	; 0x3c

  /* Initialize the DMA2D state*/
  hdma2d->State  = HAL_DMA2D_STATE_READY;
 8001a20:	2301      	movs	r3, #1
 8001a22:	f884 3039 	strb.w	r3, [r4, #57]	; 0x39

  return HAL_OK;
}
 8001a26:	bd10      	pop	{r4, pc}
    hdma2d->Lock = HAL_UNLOCKED;
 8001a28:	f880 3038 	strb.w	r3, [r0, #56]	; 0x38
    HAL_DMA2D_MspInit(hdma2d);
 8001a2c:	f7ff fd70 	bl	8001510 <HAL_DMA2D_MspInit>
 8001a30:	e7dc      	b.n	80019ec <HAL_DMA2D_Init+0xc>
    return HAL_ERROR;
 8001a32:	2001      	movs	r0, #1
}
 8001a34:	4770      	bx	lr
 8001a36:	bf00      	nop
 8001a38:	ffffc000 	.word	0xffffc000

08001a3c <HAL_DMA2D_LineEventCallback>:
  UNUSED(hdma2d);

  /* NOTE : This function should not be modified; when the callback is needed,
            the HAL_DMA2D_LineEventCallback can be implemented in the user file.
   */
}
 8001a3c:	4770      	bx	lr

08001a3e <HAL_DMA2D_CLUTLoadingCpltCallback>:
  UNUSED(hdma2d);

  /* NOTE : This function should not be modified; when the callback is needed,
            the HAL_DMA2D_CLUTLoadingCpltCallback can be implemented in the user file.
   */
}
 8001a3e:	4770      	bx	lr

08001a40 <HAL_DMA2D_IRQHandler>:
{
 8001a40:	b570      	push	{r4, r5, r6, lr}
 8001a42:	4604      	mov	r4, r0
  uint32_t isrflags = READ_REG(hdma2d->Instance->ISR);
 8001a44:	6803      	ldr	r3, [r0, #0]
 8001a46:	685d      	ldr	r5, [r3, #4]
  uint32_t crflags = READ_REG(hdma2d->Instance->CR);
 8001a48:	681e      	ldr	r6, [r3, #0]
  if ((isrflags & DMA2D_FLAG_TE) != 0U)
 8001a4a:	f015 0f01 	tst.w	r5, #1
 8001a4e:	d016      	beq.n	8001a7e <HAL_DMA2D_IRQHandler+0x3e>
    if ((crflags & DMA2D_IT_TE) != 0U)
 8001a50:	f416 7f80 	tst.w	r6, #256	; 0x100
 8001a54:	d013      	beq.n	8001a7e <HAL_DMA2D_IRQHandler+0x3e>
      __HAL_DMA2D_DISABLE_IT(hdma2d, DMA2D_IT_TE);
 8001a56:	681a      	ldr	r2, [r3, #0]
 8001a58:	f422 7280 	bic.w	r2, r2, #256	; 0x100
 8001a5c:	601a      	str	r2, [r3, #0]
      hdma2d->ErrorCode |= HAL_DMA2D_ERROR_TE;
 8001a5e:	6bc3      	ldr	r3, [r0, #60]	; 0x3c
 8001a60:	f043 0301 	orr.w	r3, r3, #1
 8001a64:	63c3      	str	r3, [r0, #60]	; 0x3c
      __HAL_DMA2D_CLEAR_FLAG(hdma2d, DMA2D_FLAG_TE);
 8001a66:	6803      	ldr	r3, [r0, #0]
 8001a68:	2201      	movs	r2, #1
 8001a6a:	609a      	str	r2, [r3, #8]
      hdma2d->State = HAL_DMA2D_STATE_ERROR;
 8001a6c:	2304      	movs	r3, #4
 8001a6e:	f880 3039 	strb.w	r3, [r0, #57]	; 0x39
      __HAL_UNLOCK(hdma2d);
 8001a72:	2300      	movs	r3, #0
 8001a74:	f880 3038 	strb.w	r3, [r0, #56]	; 0x38
      if (hdma2d->XferErrorCallback != NULL)
 8001a78:	6943      	ldr	r3, [r0, #20]
 8001a7a:	b103      	cbz	r3, 8001a7e <HAL_DMA2D_IRQHandler+0x3e>
        hdma2d->XferErrorCallback(hdma2d);
 8001a7c:	4798      	blx	r3
  if ((isrflags & DMA2D_FLAG_CE) != 0U)
 8001a7e:	f015 0f20 	tst.w	r5, #32
 8001a82:	d018      	beq.n	8001ab6 <HAL_DMA2D_IRQHandler+0x76>
    if ((crflags & DMA2D_IT_CE) != 0U)
 8001a84:	f416 5f00 	tst.w	r6, #8192	; 0x2000
 8001a88:	d015      	beq.n	8001ab6 <HAL_DMA2D_IRQHandler+0x76>
      __HAL_DMA2D_DISABLE_IT(hdma2d, DMA2D_IT_CE);
 8001a8a:	6822      	ldr	r2, [r4, #0]
 8001a8c:	6813      	ldr	r3, [r2, #0]
 8001a8e:	f423 5300 	bic.w	r3, r3, #8192	; 0x2000
 8001a92:	6013      	str	r3, [r2, #0]
      __HAL_DMA2D_CLEAR_FLAG(hdma2d, DMA2D_FLAG_CE);
 8001a94:	6823      	ldr	r3, [r4, #0]
 8001a96:	2220      	movs	r2, #32
 8001a98:	609a      	str	r2, [r3, #8]
      hdma2d->ErrorCode |= HAL_DMA2D_ERROR_CE;
 8001a9a:	6be3      	ldr	r3, [r4, #60]	; 0x3c
 8001a9c:	f043 0302 	orr.w	r3, r3, #2
 8001aa0:	63e3      	str	r3, [r4, #60]	; 0x3c
      hdma2d->State = HAL_DMA2D_STATE_ERROR;
 8001aa2:	2304      	movs	r3, #4
 8001aa4:	f884 3039 	strb.w	r3, [r4, #57]	; 0x39
      __HAL_UNLOCK(hdma2d);
 8001aa8:	2300      	movs	r3, #0
 8001aaa:	f884 3038 	strb.w	r3, [r4, #56]	; 0x38
      if (hdma2d->XferErrorCallback != NULL)
 8001aae:	6963      	ldr	r3, [r4, #20]
 8001ab0:	b10b      	cbz	r3, 8001ab6 <HAL_DMA2D_IRQHandler+0x76>
        hdma2d->XferErrorCallback(hdma2d);
 8001ab2:	4620      	mov	r0, r4
 8001ab4:	4798      	blx	r3
  if ((isrflags & DMA2D_FLAG_CAE) != 0U)
 8001ab6:	f015 0f08 	tst.w	r5, #8
 8001aba:	d018      	beq.n	8001aee <HAL_DMA2D_IRQHandler+0xae>
    if ((crflags & DMA2D_IT_CAE) != 0U)
 8001abc:	f416 6f00 	tst.w	r6, #2048	; 0x800
 8001ac0:	d015      	beq.n	8001aee <HAL_DMA2D_IRQHandler+0xae>
      __HAL_DMA2D_DISABLE_IT(hdma2d, DMA2D_IT_CAE);
 8001ac2:	6822      	ldr	r2, [r4, #0]
 8001ac4:	6813      	ldr	r3, [r2, #0]
 8001ac6:	f423 6300 	bic.w	r3, r3, #2048	; 0x800
 8001aca:	6013      	str	r3, [r2, #0]
      __HAL_DMA2D_CLEAR_FLAG(hdma2d, DMA2D_FLAG_CAE);
 8001acc:	6823      	ldr	r3, [r4, #0]
 8001ace:	2208      	movs	r2, #8
 8001ad0:	609a      	str	r2, [r3, #8]
      hdma2d->ErrorCode |= HAL_DMA2D_ERROR_CAE;
 8001ad2:	6be3      	ldr	r3, [r4, #60]	; 0x3c
 8001ad4:	f043 0304 	orr.w	r3, r3, #4
 8001ad8:	63e3      	str	r3, [r4, #60]	; 0x3c
      hdma2d->State = HAL_DMA2D_STATE_ERROR;
 8001ada:	2304      	movs	r3, #4
 8001adc:	f884 3039 	strb.w	r3, [r4, #57]	; 0x39
      __HAL_UNLOCK(hdma2d);
 8001ae0:	2300      	movs	r3, #0
 8001ae2:	f884 3038 	strb.w	r3, [r4, #56]	; 0x38
      if (hdma2d->XferErrorCallback != NULL)
 8001ae6:	6963      	ldr	r3, [r4, #20]
 8001ae8:	b10b      	cbz	r3, 8001aee <HAL_DMA2D_IRQHandler+0xae>
        hdma2d->XferErrorCallback(hdma2d);
 8001aea:	4620      	mov	r0, r4
 8001aec:	4798      	blx	r3
  if ((isrflags & DMA2D_FLAG_TW) != 0U)
 8001aee:	f015 0f04 	tst.w	r5, #4
 8001af2:	d002      	beq.n	8001afa <HAL_DMA2D_IRQHandler+0xba>
    if ((crflags & DMA2D_IT_TW) != 0U)
 8001af4:	f416 6f80 	tst.w	r6, #1024	; 0x400
 8001af8:	d120      	bne.n	8001b3c <HAL_DMA2D_IRQHandler+0xfc>
  if ((isrflags & DMA2D_FLAG_TC) != 0U)
 8001afa:	f015 0f02 	tst.w	r5, #2
 8001afe:	d016      	beq.n	8001b2e <HAL_DMA2D_IRQHandler+0xee>
    if ((crflags & DMA2D_IT_TC) != 0U)
 8001b00:	f416 7f00 	tst.w	r6, #512	; 0x200
 8001b04:	d013      	beq.n	8001b2e <HAL_DMA2D_IRQHandler+0xee>
      __HAL_DMA2D_DISABLE_IT(hdma2d, DMA2D_IT_TC);
 8001b06:	6822      	ldr	r2, [r4, #0]
 8001b08:	6813      	ldr	r3, [r2, #0]
 8001b0a:	f423 7300 	bic.w	r3, r3, #512	; 0x200
 8001b0e:	6013      	str	r3, [r2, #0]
      __HAL_DMA2D_CLEAR_FLAG(hdma2d, DMA2D_FLAG_TC);
 8001b10:	6823      	ldr	r3, [r4, #0]
 8001b12:	2202      	movs	r2, #2
 8001b14:	609a      	str	r2, [r3, #8]
      hdma2d->ErrorCode |= HAL_DMA2D_ERROR_NONE;
 8001b16:	6be3      	ldr	r3, [r4, #60]	; 0x3c
 8001b18:	63e3      	str	r3, [r4, #60]	; 0x3c
      hdma2d->State = HAL_DMA2D_STATE_READY;
 8001b1a:	2301      	movs	r3, #1
 8001b1c:	f884 3039 	strb.w	r3, [r4, #57]	; 0x39
      __HAL_UNLOCK(hdma2d);
 8001b20:	2300      	movs	r3, #0
 8001b22:	f884 3038 	strb.w	r3, [r4, #56]	; 0x38
      if (hdma2d->XferCpltCallback != NULL)
 8001b26:	6923      	ldr	r3, [r4, #16]
 8001b28:	b10b      	cbz	r3, 8001b2e <HAL_DMA2D_IRQHandler+0xee>
        hdma2d->XferCpltCallback(hdma2d);
 8001b2a:	4620      	mov	r0, r4
 8001b2c:	4798      	blx	r3
  if ((isrflags & DMA2D_FLAG_CTC) != 0U)
 8001b2e:	f015 0f10 	tst.w	r5, #16
 8001b32:	d002      	beq.n	8001b3a <HAL_DMA2D_IRQHandler+0xfa>
    if ((crflags & DMA2D_IT_CTC) != 0U)
 8001b34:	f416 5f80 	tst.w	r6, #4096	; 0x1000
 8001b38:	d10c      	bne.n	8001b54 <HAL_DMA2D_IRQHandler+0x114>
}
 8001b3a:	bd70      	pop	{r4, r5, r6, pc}
      __HAL_DMA2D_DISABLE_IT(hdma2d, DMA2D_IT_TW);
 8001b3c:	6822      	ldr	r2, [r4, #0]
 8001b3e:	6813      	ldr	r3, [r2, #0]
 8001b40:	f423 6380 	bic.w	r3, r3, #1024	; 0x400
 8001b44:	6013      	str	r3, [r2, #0]
      __HAL_DMA2D_CLEAR_FLAG(hdma2d, DMA2D_FLAG_TW);
 8001b46:	6823      	ldr	r3, [r4, #0]
 8001b48:	2204      	movs	r2, #4
 8001b4a:	609a      	str	r2, [r3, #8]
      HAL_DMA2D_LineEventCallback(hdma2d);
 8001b4c:	4620      	mov	r0, r4
 8001b4e:	f7ff ff75 	bl	8001a3c <HAL_DMA2D_LineEventCallback>
 8001b52:	e7d2      	b.n	8001afa <HAL_DMA2D_IRQHandler+0xba>
      __HAL_DMA2D_DISABLE_IT(hdma2d, DMA2D_IT_CTC);
 8001b54:	6822      	ldr	r2, [r4, #0]
 8001b56:	6813      	ldr	r3, [r2, #0]
 8001b58:	f423 5380 	bic.w	r3, r3, #4096	; 0x1000
 8001b5c:	6013      	str	r3, [r2, #0]
      __HAL_DMA2D_CLEAR_FLAG(hdma2d, DMA2D_FLAG_CTC);
 8001b5e:	6823      	ldr	r3, [r4, #0]
 8001b60:	2210      	movs	r2, #16
 8001b62:	609a      	str	r2, [r3, #8]
      hdma2d->ErrorCode |= HAL_DMA2D_ERROR_NONE;
 8001b64:	6be3      	ldr	r3, [r4, #60]	; 0x3c
 8001b66:	63e3      	str	r3, [r4, #60]	; 0x3c
      hdma2d->State = HAL_DMA2D_STATE_READY;
 8001b68:	2301      	movs	r3, #1
 8001b6a:	f884 3039 	strb.w	r3, [r4, #57]	; 0x39
      __HAL_UNLOCK(hdma2d);
 8001b6e:	2300      	movs	r3, #0
 8001b70:	f884 3038 	strb.w	r3, [r4, #56]	; 0x38
      HAL_DMA2D_CLUTLoadingCpltCallback(hdma2d);
 8001b74:	4620      	mov	r0, r4
 8001b76:	f7ff ff62 	bl	8001a3e <HAL_DMA2D_CLUTLoadingCpltCallback>
}
 8001b7a:	e7de      	b.n	8001b3a <HAL_DMA2D_IRQHandler+0xfa>

08001b7c <HAL_DMA2D_ConfigLayer>:
  assert_param(IS_DMA2D_ALPHA_INVERTED(hdma2d->LayerCfg[LayerIdx].AlphaInverted));
  assert_param(IS_DMA2D_RB_SWAP(hdma2d->LayerCfg[LayerIdx].RedBlueSwap));
#endif /* DMA2D_ALPHA_INV_RB_SWAP_SUPPORT */

  /* Process locked */
  __HAL_LOCK(hdma2d);
 8001b7c:	f890 3038 	ldrb.w	r3, [r0, #56]	; 0x38
 8001b80:	2b01      	cmp	r3, #1
 8001b82:	d059      	beq.n	8001c38 <HAL_DMA2D_ConfigLayer+0xbc>
{
 8001b84:	b430      	push	{r4, r5}
  __HAL_LOCK(hdma2d);
 8001b86:	2301      	movs	r3, #1
 8001b88:	f880 3038 	strb.w	r3, [r0, #56]	; 0x38

  /* Change DMA2D peripheral state */
  hdma2d->State = HAL_DMA2D_STATE_BUSY;
 8001b8c:	2302      	movs	r3, #2
 8001b8e:	f880 3039 	strb.w	r3, [r0, #57]	; 0x39
#if defined (DMA2D_ALPHA_INV_RB_SWAP_SUPPORT)
  regValue = pLayerCfg->InputColorMode | (pLayerCfg->AlphaMode << DMA2D_BGPFCCR_AM_Pos) | \
             (pLayerCfg->AlphaInverted << DMA2D_BGPFCCR_AI_Pos) | (pLayerCfg->RedBlueSwap << DMA2D_BGPFCCR_RBS_Pos);
  regMask  = (DMA2D_BGPFCCR_CM | DMA2D_BGPFCCR_AM | DMA2D_BGPFCCR_ALPHA | DMA2D_BGPFCCR_AI | DMA2D_BGPFCCR_RBS);
#else
  regValue = pLayerCfg->InputColorMode | (pLayerCfg->AlphaMode << DMA2D_BGPFCCR_AM_Pos);
 8001b92:	eb00 1301 	add.w	r3, r0, r1, lsl #4
 8001b96:	69da      	ldr	r2, [r3, #28]
 8001b98:	1c8b      	adds	r3, r1, #2
 8001b9a:	011b      	lsls	r3, r3, #4
 8001b9c:	58c3      	ldr	r3, [r0, r3]
 8001b9e:	ea42 4303 	orr.w	r3, r2, r3, lsl #16
  regMask  = DMA2D_BGPFCCR_CM | DMA2D_BGPFCCR_AM | DMA2D_BGPFCCR_ALPHA;
#endif /* DMA2D_ALPHA_INV_RB_SWAP_SUPPORT */


  if ((pLayerCfg->InputColorMode == DMA2D_INPUT_A4) || (pLayerCfg->InputColorMode == DMA2D_INPUT_A8))
 8001ba2:	3a09      	subs	r2, #9
 8001ba4:	2a01      	cmp	r2, #1
 8001ba6:	d91e      	bls.n	8001be6 <HAL_DMA2D_ConfigLayer+0x6a>
  {
    regValue |= (pLayerCfg->InputAlpha & DMA2D_BGPFCCR_ALPHA);
  }
  else
  {
    regValue |= (pLayerCfg->InputAlpha << DMA2D_BGPFCCR_ALPHA_Pos);
 8001ba8:	1c8a      	adds	r2, r1, #2
 8001baa:	eb00 1202 	add.w	r2, r0, r2, lsl #4
 8001bae:	6852      	ldr	r2, [r2, #4]
 8001bb0:	ea43 6302 	orr.w	r3, r3, r2, lsl #24
  }

  /* Configure the background DMA2D layer */
  if (LayerIdx == DMA2D_BACKGROUND_LAYER)
 8001bb4:	bb41      	cbnz	r1, 8001c08 <HAL_DMA2D_ConfigLayer+0x8c>
  {
    /* Write DMA2D BGPFCCR register */
    MODIFY_REG(hdma2d->Instance->BGPFCCR, regMask, regValue);
 8001bb6:	6804      	ldr	r4, [r0, #0]
 8001bb8:	6a65      	ldr	r5, [r4, #36]	; 0x24
 8001bba:	4a20      	ldr	r2, [pc, #128]	; (8001c3c <HAL_DMA2D_ConfigLayer+0xc0>)
 8001bbc:	402a      	ands	r2, r5
 8001bbe:	4313      	orrs	r3, r2
 8001bc0:	6263      	str	r3, [r4, #36]	; 0x24

    /* DMA2D BGOR register configuration -------------------------------------*/
    WRITE_REG(hdma2d->Instance->BGOR, pLayerCfg->InputOffset);
 8001bc2:	6802      	ldr	r2, [r0, #0]
 8001bc4:	eb00 1301 	add.w	r3, r0, r1, lsl #4
 8001bc8:	699c      	ldr	r4, [r3, #24]
 8001bca:	6194      	str	r4, [r2, #24]

    /* DMA2D BGCOLR register configuration -------------------------------------*/
    if ((pLayerCfg->InputColorMode == DMA2D_INPUT_A4) || (pLayerCfg->InputColorMode == DMA2D_INPUT_A8))
 8001bcc:	69db      	ldr	r3, [r3, #28]
 8001bce:	3b09      	subs	r3, #9
 8001bd0:	2b01      	cmp	r3, #1
 8001bd2:	d910      	bls.n	8001bf6 <HAL_DMA2D_ConfigLayer+0x7a>
      WRITE_REG(hdma2d->Instance->FGCOLR, pLayerCfg->InputAlpha & (DMA2D_FGCOLR_BLUE | DMA2D_FGCOLR_GREEN | \
                                                                   DMA2D_FGCOLR_RED));
    }
  }
  /* Initialize the DMA2D state*/
  hdma2d->State = HAL_DMA2D_STATE_READY;
 8001bd4:	2301      	movs	r3, #1
 8001bd6:	f880 3039 	strb.w	r3, [r0, #57]	; 0x39

  /* Process unlocked */
  __HAL_UNLOCK(hdma2d);
 8001bda:	2300      	movs	r3, #0
 8001bdc:	f880 3038 	strb.w	r3, [r0, #56]	; 0x38

  return HAL_OK;
 8001be0:	4618      	mov	r0, r3
}
 8001be2:	bc30      	pop	{r4, r5}
 8001be4:	4770      	bx	lr
    regValue |= (pLayerCfg->InputAlpha & DMA2D_BGPFCCR_ALPHA);
 8001be6:	1c8a      	adds	r2, r1, #2
 8001be8:	eb00 1202 	add.w	r2, r0, r2, lsl #4
 8001bec:	6852      	ldr	r2, [r2, #4]
 8001bee:	f002 427f 	and.w	r2, r2, #4278190080	; 0xff000000
 8001bf2:	4313      	orrs	r3, r2
 8001bf4:	e7de      	b.n	8001bb4 <HAL_DMA2D_ConfigLayer+0x38>
      WRITE_REG(hdma2d->Instance->BGCOLR, pLayerCfg->InputAlpha & (DMA2D_BGCOLR_BLUE | DMA2D_BGCOLR_GREEN | \
 8001bf6:	3102      	adds	r1, #2
 8001bf8:	eb00 1101 	add.w	r1, r0, r1, lsl #4
 8001bfc:	684b      	ldr	r3, [r1, #4]
 8001bfe:	6802      	ldr	r2, [r0, #0]
 8001c00:	f023 437f 	bic.w	r3, r3, #4278190080	; 0xff000000
 8001c04:	6293      	str	r3, [r2, #40]	; 0x28
 8001c06:	e7e5      	b.n	8001bd4 <HAL_DMA2D_ConfigLayer+0x58>
    MODIFY_REG(hdma2d->Instance->FGPFCCR, regMask, regValue);
 8001c08:	6804      	ldr	r4, [r0, #0]
 8001c0a:	69e5      	ldr	r5, [r4, #28]
 8001c0c:	4a0b      	ldr	r2, [pc, #44]	; (8001c3c <HAL_DMA2D_ConfigLayer+0xc0>)
 8001c0e:	402a      	ands	r2, r5
 8001c10:	4313      	orrs	r3, r2
 8001c12:	61e3      	str	r3, [r4, #28]
    WRITE_REG(hdma2d->Instance->FGOR, pLayerCfg->InputOffset);
 8001c14:	6802      	ldr	r2, [r0, #0]
 8001c16:	eb00 1301 	add.w	r3, r0, r1, lsl #4
 8001c1a:	699c      	ldr	r4, [r3, #24]
 8001c1c:	6114      	str	r4, [r2, #16]
    if ((pLayerCfg->InputColorMode == DMA2D_INPUT_A4) || (pLayerCfg->InputColorMode == DMA2D_INPUT_A8))
 8001c1e:	69db      	ldr	r3, [r3, #28]
 8001c20:	3b09      	subs	r3, #9
 8001c22:	2b01      	cmp	r3, #1
 8001c24:	d8d6      	bhi.n	8001bd4 <HAL_DMA2D_ConfigLayer+0x58>
      WRITE_REG(hdma2d->Instance->FGCOLR, pLayerCfg->InputAlpha & (DMA2D_FGCOLR_BLUE | DMA2D_FGCOLR_GREEN | \
 8001c26:	3102      	adds	r1, #2
 8001c28:	eb00 1101 	add.w	r1, r0, r1, lsl #4
 8001c2c:	684b      	ldr	r3, [r1, #4]
 8001c2e:	6802      	ldr	r2, [r0, #0]
 8001c30:	f023 437f 	bic.w	r3, r3, #4278190080	; 0xff000000
 8001c34:	6213      	str	r3, [r2, #32]
 8001c36:	e7cd      	b.n	8001bd4 <HAL_DMA2D_ConfigLayer+0x58>
  __HAL_LOCK(hdma2d);
 8001c38:	2002      	movs	r0, #2
}
 8001c3a:	4770      	bx	lr
 8001c3c:	00fcfff0 	.word	0x00fcfff0

08001c40 <HAL_GPIO_Init>:
  assert_param(IS_GPIO_PIN(GPIO_Init->Pin));
  assert_param(IS_GPIO_MODE(GPIO_Init->Mode));
  assert_param(IS_GPIO_PULL(GPIO_Init->Pull));

  /* Configure the port pins */
  for(position = 0; position < GPIO_NUMBER; position++)
 8001c40:	2300      	movs	r3, #0
 8001c42:	2b0f      	cmp	r3, #15
 8001c44:	f200 80e1 	bhi.w	8001e0a <HAL_GPIO_Init+0x1ca>
{
 8001c48:	b5f0      	push	{r4, r5, r6, r7, lr}
 8001c4a:	b083      	sub	sp, #12
 8001c4c:	e039      	b.n	8001cc2 <HAL_GPIO_Init+0x82>
        /* Enable SYSCFG Clock */
        __HAL_RCC_SYSCFG_CLK_ENABLE();

        temp = SYSCFG->EXTICR[position >> 2];
        temp &= ~(((uint32_t)0x0F) << (4 * (position & 0x03)));
        temp |= ((uint32_t)(GPIO_GET_INDEX(GPIOx)) << (4 * (position & 0x03)));
 8001c4e:	2209      	movs	r2, #9
 8001c50:	e000      	b.n	8001c54 <HAL_GPIO_Init+0x14>
 8001c52:	2200      	movs	r2, #0
 8001c54:	40b2      	lsls	r2, r6
 8001c56:	433a      	orrs	r2, r7
        SYSCFG->EXTICR[position >> 2] = temp;
 8001c58:	3402      	adds	r4, #2
 8001c5a:	4e6c      	ldr	r6, [pc, #432]	; (8001e0c <HAL_GPIO_Init+0x1cc>)
 8001c5c:	f846 2024 	str.w	r2, [r6, r4, lsl #2]

        /* Clear EXTI line configuration */
        temp = EXTI->IMR;
 8001c60:	4a6b      	ldr	r2, [pc, #428]	; (8001e10 <HAL_GPIO_Init+0x1d0>)
 8001c62:	6814      	ldr	r4, [r2, #0]
        temp &= ~((uint32_t)iocurrent);
 8001c64:	43ea      	mvns	r2, r5
 8001c66:	ea02 0604 	and.w	r6, r2, r4
        if((GPIO_Init->Mode & GPIO_MODE_IT) == GPIO_MODE_IT)
 8001c6a:	684f      	ldr	r7, [r1, #4]
 8001c6c:	f417 3f80 	tst.w	r7, #65536	; 0x10000
 8001c70:	d001      	beq.n	8001c76 <HAL_GPIO_Init+0x36>
        {
          temp |= iocurrent;
 8001c72:	ea45 0604 	orr.w	r6, r5, r4
        }
        EXTI->IMR = temp;
 8001c76:	4c66      	ldr	r4, [pc, #408]	; (8001e10 <HAL_GPIO_Init+0x1d0>)
 8001c78:	6026      	str	r6, [r4, #0]

        temp = EXTI->EMR;
 8001c7a:	6864      	ldr	r4, [r4, #4]
        temp &= ~((uint32_t)iocurrent);
 8001c7c:	ea02 0604 	and.w	r6, r2, r4
        if((GPIO_Init->Mode & GPIO_MODE_EVT) == GPIO_MODE_EVT)
 8001c80:	684f      	ldr	r7, [r1, #4]
 8001c82:	f417 3f00 	tst.w	r7, #131072	; 0x20000
 8001c86:	d001      	beq.n	8001c8c <HAL_GPIO_Init+0x4c>
        {
          temp |= iocurrent;
 8001c88:	ea45 0604 	orr.w	r6, r5, r4
        }
        EXTI->EMR = temp;
 8001c8c:	4c60      	ldr	r4, [pc, #384]	; (8001e10 <HAL_GPIO_Init+0x1d0>)
 8001c8e:	6066      	str	r6, [r4, #4]

        /* Clear Rising Falling edge configuration */
        temp = EXTI->RTSR;
 8001c90:	68a4      	ldr	r4, [r4, #8]
        temp &= ~((uint32_t)iocurrent);
 8001c92:	ea02 0604 	and.w	r6, r2, r4
        if((GPIO_Init->Mode & RISING_EDGE) == RISING_EDGE)
 8001c96:	684f      	ldr	r7, [r1, #4]
 8001c98:	f417 1f80 	tst.w	r7, #1048576	; 0x100000
 8001c9c:	d001      	beq.n	8001ca2 <HAL_GPIO_Init+0x62>
        {
          temp |= iocurrent;
 8001c9e:	ea45 0604 	orr.w	r6, r5, r4
        }
        EXTI->RTSR = temp;
 8001ca2:	4c5b      	ldr	r4, [pc, #364]	; (8001e10 <HAL_GPIO_Init+0x1d0>)
 8001ca4:	60a6      	str	r6, [r4, #8]

        temp = EXTI->FTSR;
 8001ca6:	68e4      	ldr	r4, [r4, #12]
        temp &= ~((uint32_t)iocurrent);
 8001ca8:	4022      	ands	r2, r4
        if((GPIO_Init->Mode & FALLING_EDGE) == FALLING_EDGE)
 8001caa:	684e      	ldr	r6, [r1, #4]
 8001cac:	f416 1f00 	tst.w	r6, #2097152	; 0x200000
 8001cb0:	d001      	beq.n	8001cb6 <HAL_GPIO_Init+0x76>
        {
          temp |= iocurrent;
 8001cb2:	ea45 0204 	orr.w	r2, r5, r4
        }
        EXTI->FTSR = temp;
 8001cb6:	4c56      	ldr	r4, [pc, #344]	; (8001e10 <HAL_GPIO_Init+0x1d0>)
 8001cb8:	60e2      	str	r2, [r4, #12]
  for(position = 0; position < GPIO_NUMBER; position++)
 8001cba:	3301      	adds	r3, #1
 8001cbc:	2b0f      	cmp	r3, #15
 8001cbe:	f200 80a2 	bhi.w	8001e06 <HAL_GPIO_Init+0x1c6>
    ioposition = ((uint32_t)0x01) << position;
 8001cc2:	2201      	movs	r2, #1
 8001cc4:	409a      	lsls	r2, r3
    iocurrent = (uint32_t)(GPIO_Init->Pin) & ioposition;
 8001cc6:	680c      	ldr	r4, [r1, #0]
 8001cc8:	ea04 0502 	and.w	r5, r4, r2
    if(iocurrent == ioposition)
 8001ccc:	42aa      	cmp	r2, r5
 8001cce:	d1f4      	bne.n	8001cba <HAL_GPIO_Init+0x7a>
      if((GPIO_Init->Mode == GPIO_MODE_OUTPUT_PP) || (GPIO_Init->Mode == GPIO_MODE_AF_PP) ||
 8001cd0:	684c      	ldr	r4, [r1, #4]
 8001cd2:	1e66      	subs	r6, r4, #1
 8001cd4:	2c11      	cmp	r4, #17
 8001cd6:	bf18      	it	ne
 8001cd8:	2e01      	cmpne	r6, #1
 8001cda:	d901      	bls.n	8001ce0 <HAL_GPIO_Init+0xa0>
         (GPIO_Init->Mode == GPIO_MODE_OUTPUT_OD) || (GPIO_Init->Mode == GPIO_MODE_AF_OD))
 8001cdc:	2c12      	cmp	r4, #18
 8001cde:	d112      	bne.n	8001d06 <HAL_GPIO_Init+0xc6>
        temp = GPIOx->OSPEEDR; 
 8001ce0:	6886      	ldr	r6, [r0, #8]
        temp &= ~(GPIO_OSPEEDER_OSPEEDR0 << (position * 2));
 8001ce2:	005f      	lsls	r7, r3, #1
 8001ce4:	2403      	movs	r4, #3
 8001ce6:	40bc      	lsls	r4, r7
 8001ce8:	ea26 0604 	bic.w	r6, r6, r4
        temp |= (GPIO_Init->Speed << (position * 2));
 8001cec:	68cc      	ldr	r4, [r1, #12]
 8001cee:	40bc      	lsls	r4, r7
 8001cf0:	4334      	orrs	r4, r6
        GPIOx->OSPEEDR = temp;
 8001cf2:	6084      	str	r4, [r0, #8]
        temp = GPIOx->OTYPER;
 8001cf4:	6846      	ldr	r6, [r0, #4]
        temp &= ~(GPIO_OTYPER_OT_0 << position) ;
 8001cf6:	ea26 0602 	bic.w	r6, r6, r2
        temp |= (((GPIO_Init->Mode & GPIO_OUTPUT_TYPE) >> 4) << position);
 8001cfa:	684c      	ldr	r4, [r1, #4]
 8001cfc:	f3c4 1200 	ubfx	r2, r4, #4, #1
 8001d00:	409a      	lsls	r2, r3
 8001d02:	4332      	orrs	r2, r6
        GPIOx->OTYPER = temp;
 8001d04:	6042      	str	r2, [r0, #4]
      temp = GPIOx->PUPDR;
 8001d06:	68c2      	ldr	r2, [r0, #12]
      temp &= ~(GPIO_PUPDR_PUPDR0 << (position * 2));
 8001d08:	005f      	lsls	r7, r3, #1
 8001d0a:	2603      	movs	r6, #3
 8001d0c:	40be      	lsls	r6, r7
 8001d0e:	43f6      	mvns	r6, r6
 8001d10:	4032      	ands	r2, r6
      temp |= ((GPIO_Init->Pull) << (position * 2));
 8001d12:	688c      	ldr	r4, [r1, #8]
 8001d14:	40bc      	lsls	r4, r7
 8001d16:	4314      	orrs	r4, r2
      GPIOx->PUPDR = temp;
 8001d18:	60c4      	str	r4, [r0, #12]
      if((GPIO_Init->Mode == GPIO_MODE_AF_PP) || (GPIO_Init->Mode == GPIO_MODE_AF_OD))
 8001d1a:	684a      	ldr	r2, [r1, #4]
 8001d1c:	2a12      	cmp	r2, #18
 8001d1e:	bf18      	it	ne
 8001d20:	2a02      	cmpne	r2, #2
 8001d22:	d113      	bne.n	8001d4c <HAL_GPIO_Init+0x10c>
        temp = GPIOx->AFR[position >> 3];
 8001d24:	08dc      	lsrs	r4, r3, #3
 8001d26:	3408      	adds	r4, #8
 8001d28:	f850 e024 	ldr.w	lr, [r0, r4, lsl #2]
        temp &= ~((uint32_t)0xF << ((uint32_t)(position & (uint32_t)0x07) * 4)) ;
 8001d2c:	f003 0207 	and.w	r2, r3, #7
 8001d30:	ea4f 0c82 	mov.w	ip, r2, lsl #2
 8001d34:	220f      	movs	r2, #15
 8001d36:	fa02 f20c 	lsl.w	r2, r2, ip
 8001d3a:	ea2e 0e02 	bic.w	lr, lr, r2
        temp |= ((uint32_t)(GPIO_Init->Alternate) << (((uint32_t)position & (uint32_t)0x07) * 4));
 8001d3e:	690a      	ldr	r2, [r1, #16]
 8001d40:	fa02 f20c 	lsl.w	r2, r2, ip
 8001d44:	ea42 020e 	orr.w	r2, r2, lr
        GPIOx->AFR[position >> 3] = temp;
 8001d48:	f840 2024 	str.w	r2, [r0, r4, lsl #2]
      temp = GPIOx->MODER;
 8001d4c:	6802      	ldr	r2, [r0, #0]
      temp &= ~(GPIO_MODER_MODER0 << (position * 2));
 8001d4e:	4016      	ands	r6, r2
      temp |= ((GPIO_Init->Mode & GPIO_MODE) << (position * 2));
 8001d50:	684a      	ldr	r2, [r1, #4]
 8001d52:	f002 0203 	and.w	r2, r2, #3
 8001d56:	40ba      	lsls	r2, r7
 8001d58:	4332      	orrs	r2, r6
      GPIOx->MODER = temp;
 8001d5a:	6002      	str	r2, [r0, #0]
      if((GPIO_Init->Mode & EXTI_MODE) == EXTI_MODE)
 8001d5c:	684a      	ldr	r2, [r1, #4]
 8001d5e:	f012 5f80 	tst.w	r2, #268435456	; 0x10000000
 8001d62:	d0aa      	beq.n	8001cba <HAL_GPIO_Init+0x7a>
        __HAL_RCC_SYSCFG_CLK_ENABLE();
 8001d64:	4a2b      	ldr	r2, [pc, #172]	; (8001e14 <HAL_GPIO_Init+0x1d4>)
 8001d66:	6c54      	ldr	r4, [r2, #68]	; 0x44
 8001d68:	f444 4480 	orr.w	r4, r4, #16384	; 0x4000
 8001d6c:	6454      	str	r4, [r2, #68]	; 0x44
 8001d6e:	6c52      	ldr	r2, [r2, #68]	; 0x44
 8001d70:	f402 4280 	and.w	r2, r2, #16384	; 0x4000
 8001d74:	9201      	str	r2, [sp, #4]
 8001d76:	9a01      	ldr	r2, [sp, #4]
        temp = SYSCFG->EXTICR[position >> 2];
 8001d78:	089c      	lsrs	r4, r3, #2
 8001d7a:	1ca6      	adds	r6, r4, #2
 8001d7c:	4a23      	ldr	r2, [pc, #140]	; (8001e0c <HAL_GPIO_Init+0x1cc>)
 8001d7e:	f852 7026 	ldr.w	r7, [r2, r6, lsl #2]
        temp &= ~(((uint32_t)0x0F) << (4 * (position & 0x03)));
 8001d82:	f003 0203 	and.w	r2, r3, #3
 8001d86:	0096      	lsls	r6, r2, #2
 8001d88:	220f      	movs	r2, #15
 8001d8a:	40b2      	lsls	r2, r6
 8001d8c:	ea27 0702 	bic.w	r7, r7, r2
        temp |= ((uint32_t)(GPIO_GET_INDEX(GPIOx)) << (4 * (position & 0x03)));
 8001d90:	4a21      	ldr	r2, [pc, #132]	; (8001e18 <HAL_GPIO_Init+0x1d8>)
 8001d92:	4290      	cmp	r0, r2
 8001d94:	f43f af5d 	beq.w	8001c52 <HAL_GPIO_Init+0x12>
 8001d98:	f502 6280 	add.w	r2, r2, #1024	; 0x400
 8001d9c:	4290      	cmp	r0, r2
 8001d9e:	d022      	beq.n	8001de6 <HAL_GPIO_Init+0x1a6>
 8001da0:	f502 6280 	add.w	r2, r2, #1024	; 0x400
 8001da4:	4290      	cmp	r0, r2
 8001da6:	d020      	beq.n	8001dea <HAL_GPIO_Init+0x1aa>
 8001da8:	f502 6280 	add.w	r2, r2, #1024	; 0x400
 8001dac:	4290      	cmp	r0, r2
 8001dae:	d01e      	beq.n	8001dee <HAL_GPIO_Init+0x1ae>
 8001db0:	f502 6280 	add.w	r2, r2, #1024	; 0x400
 8001db4:	4290      	cmp	r0, r2
 8001db6:	d01c      	beq.n	8001df2 <HAL_GPIO_Init+0x1b2>
 8001db8:	f502 6280 	add.w	r2, r2, #1024	; 0x400
 8001dbc:	4290      	cmp	r0, r2
 8001dbe:	d01a      	beq.n	8001df6 <HAL_GPIO_Init+0x1b6>
 8001dc0:	f502 6280 	add.w	r2, r2, #1024	; 0x400
 8001dc4:	4290      	cmp	r0, r2
 8001dc6:	d018      	beq.n	8001dfa <HAL_GPIO_Init+0x1ba>
 8001dc8:	f502 6280 	add.w	r2, r2, #1024	; 0x400
 8001dcc:	4290      	cmp	r0, r2
 8001dce:	d016      	beq.n	8001dfe <HAL_GPIO_Init+0x1be>
 8001dd0:	f502 6280 	add.w	r2, r2, #1024	; 0x400
 8001dd4:	4290      	cmp	r0, r2
 8001dd6:	d014      	beq.n	8001e02 <HAL_GPIO_Init+0x1c2>
 8001dd8:	f502 6280 	add.w	r2, r2, #1024	; 0x400
 8001ddc:	4290      	cmp	r0, r2
 8001dde:	f43f af36 	beq.w	8001c4e <HAL_GPIO_Init+0xe>
 8001de2:	220a      	movs	r2, #10
 8001de4:	e736      	b.n	8001c54 <HAL_GPIO_Init+0x14>
 8001de6:	2201      	movs	r2, #1
 8001de8:	e734      	b.n	8001c54 <HAL_GPIO_Init+0x14>
 8001dea:	2202      	movs	r2, #2
 8001dec:	e732      	b.n	8001c54 <HAL_GPIO_Init+0x14>
 8001dee:	2203      	movs	r2, #3
 8001df0:	e730      	b.n	8001c54 <HAL_GPIO_Init+0x14>
 8001df2:	2204      	movs	r2, #4
 8001df4:	e72e      	b.n	8001c54 <HAL_GPIO_Init+0x14>
 8001df6:	2205      	movs	r2, #5
 8001df8:	e72c      	b.n	8001c54 <HAL_GPIO_Init+0x14>
 8001dfa:	2206      	movs	r2, #6
 8001dfc:	e72a      	b.n	8001c54 <HAL_GPIO_Init+0x14>
 8001dfe:	2207      	movs	r2, #7
 8001e00:	e728      	b.n	8001c54 <HAL_GPIO_Init+0x14>
 8001e02:	2208      	movs	r2, #8
 8001e04:	e726      	b.n	8001c54 <HAL_GPIO_Init+0x14>
      }
    }
  }
}
 8001e06:	b003      	add	sp, #12
 8001e08:	bdf0      	pop	{r4, r5, r6, r7, pc}
 8001e0a:	4770      	bx	lr
 8001e0c:	40013800 	.word	0x40013800
 8001e10:	40013c00 	.word	0x40013c00
 8001e14:	40023800 	.word	0x40023800
 8001e18:	40020000 	.word	0x40020000

08001e1c <HAL_GPIO_WritePin>:
{
  /* Check the parameters */
  assert_param(IS_GPIO_PIN(GPIO_Pin));
  assert_param(IS_GPIO_PIN_ACTION(PinState));

  if(PinState != GPIO_PIN_RESET)
 8001e1c:	b912      	cbnz	r2, 8001e24 <HAL_GPIO_WritePin+0x8>
  {
    GPIOx->BSRR = GPIO_Pin;
  }
  else
  {
    GPIOx->BSRR = (uint32_t)GPIO_Pin << 16;
 8001e1e:	0409      	lsls	r1, r1, #16
 8001e20:	6181      	str	r1, [r0, #24]
  }
}
 8001e22:	4770      	bx	lr
    GPIOx->BSRR = GPIO_Pin;
 8001e24:	6181      	str	r1, [r0, #24]
 8001e26:	4770      	bx	lr

08001e28 <HAL_I2C_Init>:
  * @retval HAL status
  */
HAL_StatusTypeDef HAL_I2C_Init(I2C_HandleTypeDef *hi2c)
{
  /* Check the I2C handle allocation */
  if (hi2c == NULL)
 8001e28:	2800      	cmp	r0, #0
 8001e2a:	d057      	beq.n	8001edc <HAL_I2C_Init+0xb4>
{
 8001e2c:	b510      	push	{r4, lr}
 8001e2e:	4604      	mov	r4, r0
  assert_param(IS_I2C_OWN_ADDRESS2(hi2c->Init.OwnAddress2));
  assert_param(IS_I2C_OWN_ADDRESS2_MASK(hi2c->Init.OwnAddress2Masks));
  assert_param(IS_I2C_GENERAL_CALL(hi2c->Init.GeneralCallMode));
  assert_param(IS_I2C_NO_STRETCH(hi2c->Init.NoStretchMode));

  if (hi2c->State == HAL_I2C_STATE_RESET)
 8001e30:	f890 3041 	ldrb.w	r3, [r0, #65]	; 0x41
 8001e34:	2b00      	cmp	r3, #0
 8001e36:	d041      	beq.n	8001ebc <HAL_I2C_Init+0x94>
    /* Init the low level hardware : GPIO, CLOCK, CORTEX...etc */
    HAL_I2C_MspInit(hi2c);
#endif /* USE_HAL_I2C_REGISTER_CALLBACKS */
  }

  hi2c->State = HAL_I2C_STATE_BUSY;
 8001e38:	2324      	movs	r3, #36	; 0x24
 8001e3a:	f884 3041 	strb.w	r3, [r4, #65]	; 0x41

  /* Disable the selected I2C peripheral */
  __HAL_I2C_DISABLE(hi2c);
 8001e3e:	6822      	ldr	r2, [r4, #0]
 8001e40:	6813      	ldr	r3, [r2, #0]
 8001e42:	f023 0301 	bic.w	r3, r3, #1
 8001e46:	6013      	str	r3, [r2, #0]

  /*---------------------------- I2Cx TIMINGR Configuration ------------------*/
  /* Configure I2Cx: Frequency range */
  hi2c->Instance->TIMINGR = hi2c->Init.Timing & TIMING_CLEAR_MASK;
 8001e48:	6863      	ldr	r3, [r4, #4]
 8001e4a:	6822      	ldr	r2, [r4, #0]
 8001e4c:	f023 6370 	bic.w	r3, r3, #251658240	; 0xf000000
 8001e50:	6113      	str	r3, [r2, #16]

  /*---------------------------- I2Cx OAR1 Configuration ---------------------*/
  /* Disable Own Address1 before set the Own Address1 configuration */
  hi2c->Instance->OAR1 &= ~I2C_OAR1_OA1EN;
 8001e52:	6822      	ldr	r2, [r4, #0]
 8001e54:	6893      	ldr	r3, [r2, #8]
 8001e56:	f423 4300 	bic.w	r3, r3, #32768	; 0x8000
 8001e5a:	6093      	str	r3, [r2, #8]

  /* Configure I2Cx: Own Address1 and ack own address1 mode */
  if (hi2c->Init.AddressingMode == I2C_ADDRESSINGMODE_7BIT)
 8001e5c:	68e3      	ldr	r3, [r4, #12]
 8001e5e:	2b01      	cmp	r3, #1
 8001e60:	d031      	beq.n	8001ec6 <HAL_I2C_Init+0x9e>
  {
    hi2c->Instance->OAR1 = (I2C_OAR1_OA1EN | hi2c->Init.OwnAddress1);
  }
  else /* I2C_ADDRESSINGMODE_10BIT */
  {
    hi2c->Instance->OAR1 = (I2C_OAR1_OA1EN | I2C_OAR1_OA1MODE | hi2c->Init.OwnAddress1);
 8001e62:	68a3      	ldr	r3, [r4, #8]
 8001e64:	6822      	ldr	r2, [r4, #0]
 8001e66:	f443 4304 	orr.w	r3, r3, #33792	; 0x8400
 8001e6a:	6093      	str	r3, [r2, #8]
  }

  /*---------------------------- I2Cx CR2 Configuration ----------------------*/
  /* Configure I2Cx: Addressing Master mode */
  if (hi2c->Init.AddressingMode == I2C_ADDRESSINGMODE_10BIT)
 8001e6c:	68e3      	ldr	r3, [r4, #12]
 8001e6e:	2b02      	cmp	r3, #2
 8001e70:	d02f      	beq.n	8001ed2 <HAL_I2C_Init+0xaa>
  {
    hi2c->Instance->CR2 = (I2C_CR2_ADD10);
  }
  /* Enable the AUTOEND by default, and enable NACK (should be disable only during Slave process */
  hi2c->Instance->CR2 |= (I2C_CR2_AUTOEND | I2C_CR2_NACK);
 8001e72:	6822      	ldr	r2, [r4, #0]
 8001e74:	6851      	ldr	r1, [r2, #4]
 8001e76:	4b1a      	ldr	r3, [pc, #104]	; (8001ee0 <HAL_I2C_Init+0xb8>)
 8001e78:	430b      	orrs	r3, r1
 8001e7a:	6053      	str	r3, [r2, #4]

  /*---------------------------- I2Cx OAR2 Configuration ---------------------*/
  /* Disable Own Address2 before set the Own Address2 configuration */
  hi2c->Instance->OAR2 &= ~I2C_DUALADDRESS_ENABLE;
 8001e7c:	6822      	ldr	r2, [r4, #0]
 8001e7e:	68d3      	ldr	r3, [r2, #12]
 8001e80:	f423 4300 	bic.w	r3, r3, #32768	; 0x8000
 8001e84:	60d3      	str	r3, [r2, #12]

  /* Configure I2Cx: Dual mode and Own Address2 */
  hi2c->Instance->OAR2 = (hi2c->Init.DualAddressMode | hi2c->Init.OwnAddress2 | (hi2c->Init.OwnAddress2Masks << 8));
 8001e86:	6923      	ldr	r3, [r4, #16]
 8001e88:	6962      	ldr	r2, [r4, #20]
 8001e8a:	4313      	orrs	r3, r2
 8001e8c:	69a1      	ldr	r1, [r4, #24]
 8001e8e:	6822      	ldr	r2, [r4, #0]
 8001e90:	ea43 2301 	orr.w	r3, r3, r1, lsl #8
 8001e94:	60d3      	str	r3, [r2, #12]

  /*---------------------------- I2Cx CR1 Configuration ----------------------*/
  /* Configure I2Cx: Generalcall and NoStretch mode */
  hi2c->Instance->CR1 = (hi2c->Init.GeneralCallMode | hi2c->Init.NoStretchMode);
 8001e96:	69e3      	ldr	r3, [r4, #28]
 8001e98:	6a21      	ldr	r1, [r4, #32]
 8001e9a:	6822      	ldr	r2, [r4, #0]
 8001e9c:	430b      	orrs	r3, r1
 8001e9e:	6013      	str	r3, [r2, #0]

  /* Enable the selected I2C peripheral */
  __HAL_I2C_ENABLE(hi2c);
 8001ea0:	6822      	ldr	r2, [r4, #0]
 8001ea2:	6813      	ldr	r3, [r2, #0]
 8001ea4:	f043 0301 	orr.w	r3, r3, #1
 8001ea8:	6013      	str	r3, [r2, #0]

  hi2c->ErrorCode = HAL_I2C_ERROR_NONE;
 8001eaa:	2000      	movs	r0, #0
 8001eac:	6460      	str	r0, [r4, #68]	; 0x44
  hi2c->State = HAL_I2C_STATE_READY;
 8001eae:	2320      	movs	r3, #32
 8001eb0:	f884 3041 	strb.w	r3, [r4, #65]	; 0x41
  hi2c->PreviousState = I2C_STATE_NONE;
 8001eb4:	6320      	str	r0, [r4, #48]	; 0x30
  hi2c->Mode = HAL_I2C_MODE_NONE;
 8001eb6:	f884 0042 	strb.w	r0, [r4, #66]	; 0x42

  return HAL_OK;
}
 8001eba:	bd10      	pop	{r4, pc}
    hi2c->Lock = HAL_UNLOCKED;
 8001ebc:	f880 3040 	strb.w	r3, [r0, #64]	; 0x40
    HAL_I2C_MspInit(hi2c);
 8001ec0:	f7ff fb46 	bl	8001550 <HAL_I2C_MspInit>
 8001ec4:	e7b8      	b.n	8001e38 <HAL_I2C_Init+0x10>
    hi2c->Instance->OAR1 = (I2C_OAR1_OA1EN | hi2c->Init.OwnAddress1);
 8001ec6:	68a3      	ldr	r3, [r4, #8]
 8001ec8:	6822      	ldr	r2, [r4, #0]
 8001eca:	f443 4300 	orr.w	r3, r3, #32768	; 0x8000
 8001ece:	6093      	str	r3, [r2, #8]
 8001ed0:	e7cc      	b.n	8001e6c <HAL_I2C_Init+0x44>
    hi2c->Instance->CR2 = (I2C_CR2_ADD10);
 8001ed2:	6823      	ldr	r3, [r4, #0]
 8001ed4:	f44f 6200 	mov.w	r2, #2048	; 0x800
 8001ed8:	605a      	str	r2, [r3, #4]
 8001eda:	e7ca      	b.n	8001e72 <HAL_I2C_Init+0x4a>
    return HAL_ERROR;
 8001edc:	2001      	movs	r0, #1
}
 8001ede:	4770      	bx	lr
 8001ee0:	02008000 	.word	0x02008000

08001ee4 <HAL_I2CEx_ConfigAnalogFilter>:
{
  /* Check the parameters */
  assert_param(IS_I2C_ALL_INSTANCE(hi2c->Instance));
  assert_param(IS_I2C_ANALOG_FILTER(AnalogFilter));

  if (hi2c->State == HAL_I2C_STATE_READY)
 8001ee4:	f890 3041 	ldrb.w	r3, [r0, #65]	; 0x41
 8001ee8:	b2db      	uxtb	r3, r3
 8001eea:	2b20      	cmp	r3, #32
 8001eec:	d124      	bne.n	8001f38 <HAL_I2CEx_ConfigAnalogFilter+0x54>
  {
    /* Process Locked */
    __HAL_LOCK(hi2c);
 8001eee:	f890 3040 	ldrb.w	r3, [r0, #64]	; 0x40
 8001ef2:	2b01      	cmp	r3, #1
 8001ef4:	d022      	beq.n	8001f3c <HAL_I2CEx_ConfigAnalogFilter+0x58>
 8001ef6:	2301      	movs	r3, #1
 8001ef8:	f880 3040 	strb.w	r3, [r0, #64]	; 0x40

    hi2c->State = HAL_I2C_STATE_BUSY;
 8001efc:	2324      	movs	r3, #36	; 0x24
 8001efe:	f880 3041 	strb.w	r3, [r0, #65]	; 0x41

    /* Disable the selected I2C peripheral */
    __HAL_I2C_DISABLE(hi2c);
 8001f02:	6802      	ldr	r2, [r0, #0]
 8001f04:	6813      	ldr	r3, [r2, #0]
 8001f06:	f023 0301 	bic.w	r3, r3, #1
 8001f0a:	6013      	str	r3, [r2, #0]

    /* Reset I2Cx ANOFF bit */
    hi2c->Instance->CR1 &= ~(I2C_CR1_ANFOFF);
 8001f0c:	6802      	ldr	r2, [r0, #0]
 8001f0e:	6813      	ldr	r3, [r2, #0]
 8001f10:	f423 5380 	bic.w	r3, r3, #4096	; 0x1000
 8001f14:	6013      	str	r3, [r2, #0]

    /* Set analog filter bit*/
    hi2c->Instance->CR1 |= AnalogFilter;
 8001f16:	6802      	ldr	r2, [r0, #0]
 8001f18:	6813      	ldr	r3, [r2, #0]
 8001f1a:	4319      	orrs	r1, r3
 8001f1c:	6011      	str	r1, [r2, #0]

    __HAL_I2C_ENABLE(hi2c);
 8001f1e:	6802      	ldr	r2, [r0, #0]
 8001f20:	6813      	ldr	r3, [r2, #0]
 8001f22:	f043 0301 	orr.w	r3, r3, #1
 8001f26:	6013      	str	r3, [r2, #0]

    hi2c->State = HAL_I2C_STATE_READY;
 8001f28:	2320      	movs	r3, #32
 8001f2a:	f880 3041 	strb.w	r3, [r0, #65]	; 0x41

    /* Process Unlocked */
    __HAL_UNLOCK(hi2c);
 8001f2e:	2300      	movs	r3, #0
 8001f30:	f880 3040 	strb.w	r3, [r0, #64]	; 0x40

    return HAL_OK;
 8001f34:	4618      	mov	r0, r3
 8001f36:	4770      	bx	lr
  }
  else
  {
    return HAL_BUSY;
 8001f38:	2002      	movs	r0, #2
 8001f3a:	4770      	bx	lr
    __HAL_LOCK(hi2c);
 8001f3c:	2002      	movs	r0, #2
  }
}
 8001f3e:	4770      	bx	lr

08001f40 <HAL_I2CEx_ConfigDigitalFilter>:

  /* Check the parameters */
  assert_param(IS_I2C_ALL_INSTANCE(hi2c->Instance));
  assert_param(IS_I2C_DIGITAL_FILTER(DigitalFilter));

  if (hi2c->State == HAL_I2C_STATE_READY)
 8001f40:	f890 3041 	ldrb.w	r3, [r0, #65]	; 0x41
 8001f44:	b2db      	uxtb	r3, r3
 8001f46:	2b20      	cmp	r3, #32
 8001f48:	d122      	bne.n	8001f90 <HAL_I2CEx_ConfigDigitalFilter+0x50>
  {
    /* Process Locked */
    __HAL_LOCK(hi2c);
 8001f4a:	f890 3040 	ldrb.w	r3, [r0, #64]	; 0x40
 8001f4e:	2b01      	cmp	r3, #1
 8001f50:	d020      	beq.n	8001f94 <HAL_I2CEx_ConfigDigitalFilter+0x54>
 8001f52:	2301      	movs	r3, #1
 8001f54:	f880 3040 	strb.w	r3, [r0, #64]	; 0x40

    hi2c->State = HAL_I2C_STATE_BUSY;
 8001f58:	2324      	movs	r3, #36	; 0x24
 8001f5a:	f880 3041 	strb.w	r3, [r0, #65]	; 0x41

    /* Disable the selected I2C peripheral */
    __HAL_I2C_DISABLE(hi2c);
 8001f5e:	6802      	ldr	r2, [r0, #0]
 8001f60:	6813      	ldr	r3, [r2, #0]
 8001f62:	f023 0301 	bic.w	r3, r3, #1
 8001f66:	6013      	str	r3, [r2, #0]

    /* Get the old register value */
    tmpreg = hi2c->Instance->CR1;
 8001f68:	6802      	ldr	r2, [r0, #0]
 8001f6a:	6813      	ldr	r3, [r2, #0]

    /* Reset I2Cx DNF bits [11:8] */
    tmpreg &= ~(I2C_CR1_DNF);
 8001f6c:	f423 6370 	bic.w	r3, r3, #3840	; 0xf00

    /* Set I2Cx DNF coefficient */
    tmpreg |= DigitalFilter << 8U;
 8001f70:	ea43 2101 	orr.w	r1, r3, r1, lsl #8

    /* Store the new register value */
    hi2c->Instance->CR1 = tmpreg;
 8001f74:	6011      	str	r1, [r2, #0]

    __HAL_I2C_ENABLE(hi2c);
 8001f76:	6802      	ldr	r2, [r0, #0]
 8001f78:	6813      	ldr	r3, [r2, #0]
 8001f7a:	f043 0301 	orr.w	r3, r3, #1
 8001f7e:	6013      	str	r3, [r2, #0]

    hi2c->State = HAL_I2C_STATE_READY;
 8001f80:	2320      	movs	r3, #32
 8001f82:	f880 3041 	strb.w	r3, [r0, #65]	; 0x41

    /* Process Unlocked */
    __HAL_UNLOCK(hi2c);
 8001f86:	2300      	movs	r3, #0
 8001f88:	f880 3040 	strb.w	r3, [r0, #64]	; 0x40

    return HAL_OK;
 8001f8c:	4618      	mov	r0, r3
 8001f8e:	4770      	bx	lr
  }
  else
  {
    return HAL_BUSY;
 8001f90:	2002      	movs	r0, #2
 8001f92:	4770      	bx	lr
    __HAL_LOCK(hi2c);
 8001f94:	2002      	movs	r0, #2
  }
}
 8001f96:	4770      	bx	lr

08001f98 <LTDC_SetConfig>:
  * @param  LayerIdx  LTDC Layer index.
  *                   This parameter can be one of the following values: LTDC_LAYER_1 (0) or LTDC_LAYER_2 (1)
  * @retval None
  */
static void LTDC_SetConfig(LTDC_HandleTypeDef *hltdc, LTDC_LayerCfgTypeDef *pLayerCfg, uint32_t LayerIdx)
{
 8001f98:	b4f0      	push	{r4, r5, r6, r7}
  uint32_t tmp;
  uint32_t tmp1;
  uint32_t tmp2;

  /* Configure the horizontal start and stop position */
  tmp = ((pLayerCfg->WindowX1 + ((hltdc->Instance->BPCR & LTDC_BPCR_AHBP) >> 16U)) << 16U);
 8001f9a:	684d      	ldr	r5, [r1, #4]
 8001f9c:	6804      	ldr	r4, [r0, #0]
 8001f9e:	68e3      	ldr	r3, [r4, #12]
 8001fa0:	f3c3 430b 	ubfx	r3, r3, #16, #12
 8001fa4:	441d      	add	r5, r3
  LTDC_LAYER(hltdc, LayerIdx)->WHPCR &= ~(LTDC_LxWHPCR_WHSTPOS | LTDC_LxWHPCR_WHSPPOS);
 8001fa6:	01d2      	lsls	r2, r2, #7
 8001fa8:	4414      	add	r4, r2
 8001faa:	f8d4 3088 	ldr.w	r3, [r4, #136]	; 0x88
 8001fae:	f403 4370 	and.w	r3, r3, #61440	; 0xf000
 8001fb2:	f8c4 3088 	str.w	r3, [r4, #136]	; 0x88
  LTDC_LAYER(hltdc, LayerIdx)->WHPCR = ((pLayerCfg->WindowX0 + ((hltdc->Instance->BPCR & LTDC_BPCR_AHBP) >> 16U) + 1U) | tmp);
 8001fb6:	680b      	ldr	r3, [r1, #0]
 8001fb8:	6804      	ldr	r4, [r0, #0]
 8001fba:	68e6      	ldr	r6, [r4, #12]
 8001fbc:	f3c6 460b 	ubfx	r6, r6, #16, #12
 8001fc0:	4433      	add	r3, r6
 8001fc2:	3301      	adds	r3, #1
 8001fc4:	4414      	add	r4, r2
 8001fc6:	ea43 4305 	orr.w	r3, r3, r5, lsl #16
 8001fca:	f8c4 3088 	str.w	r3, [r4, #136]	; 0x88

  /* Configure the vertical start and stop position */
  tmp = ((pLayerCfg->WindowY1 + (hltdc->Instance->BPCR & LTDC_BPCR_AVBP)) << 16U);
 8001fce:	68cd      	ldr	r5, [r1, #12]
 8001fd0:	6804      	ldr	r4, [r0, #0]
 8001fd2:	68e3      	ldr	r3, [r4, #12]
 8001fd4:	f3c3 030a 	ubfx	r3, r3, #0, #11
 8001fd8:	441d      	add	r5, r3
  LTDC_LAYER(hltdc, LayerIdx)->WVPCR &= ~(LTDC_LxWVPCR_WVSTPOS | LTDC_LxWVPCR_WVSPPOS);
 8001fda:	4414      	add	r4, r2
 8001fdc:	f8d4 308c 	ldr.w	r3, [r4, #140]	; 0x8c
 8001fe0:	f403 4370 	and.w	r3, r3, #61440	; 0xf000
 8001fe4:	f8c4 308c 	str.w	r3, [r4, #140]	; 0x8c
  LTDC_LAYER(hltdc, LayerIdx)->WVPCR  = ((pLayerCfg->WindowY0 + (hltdc->Instance->BPCR & LTDC_BPCR_AVBP) + 1U) | tmp);
 8001fe8:	688b      	ldr	r3, [r1, #8]
 8001fea:	6804      	ldr	r4, [r0, #0]
 8001fec:	68e6      	ldr	r6, [r4, #12]
 8001fee:	f3c6 060a 	ubfx	r6, r6, #0, #11
 8001ff2:	4433      	add	r3, r6
 8001ff4:	3301      	adds	r3, #1
 8001ff6:	4414      	add	r4, r2
 8001ff8:	ea43 4305 	orr.w	r3, r3, r5, lsl #16
 8001ffc:	f8c4 308c 	str.w	r3, [r4, #140]	; 0x8c

  /* Specifies the pixel format */
  LTDC_LAYER(hltdc, LayerIdx)->PFCR &= ~(LTDC_LxPFCR_PF);
 8002000:	6803      	ldr	r3, [r0, #0]
 8002002:	4413      	add	r3, r2
 8002004:	f8d3 4094 	ldr.w	r4, [r3, #148]	; 0x94
 8002008:	f024 0407 	bic.w	r4, r4, #7
 800200c:	f8c3 4094 	str.w	r4, [r3, #148]	; 0x94
  LTDC_LAYER(hltdc, LayerIdx)->PFCR = (pLayerCfg->PixelFormat);
 8002010:	6803      	ldr	r3, [r0, #0]
 8002012:	4413      	add	r3, r2
 8002014:	690c      	ldr	r4, [r1, #16]
 8002016:	f8c3 4094 	str.w	r4, [r3, #148]	; 0x94

  /* Configure the default color values */
  tmp = ((uint32_t)(pLayerCfg->Backcolor.Green) << 8U);
 800201a:	f891 c031 	ldrb.w	ip, [r1, #49]	; 0x31
  tmp1 = ((uint32_t)(pLayerCfg->Backcolor.Red) << 16U);
 800201e:	f891 7032 	ldrb.w	r7, [r1, #50]	; 0x32
  tmp2 = (pLayerCfg->Alpha0 << 24U);
 8002022:	698e      	ldr	r6, [r1, #24]
  LTDC_LAYER(hltdc, LayerIdx)->DCCR &= ~(LTDC_LxDCCR_DCBLUE | LTDC_LxDCCR_DCGREEN | LTDC_LxDCCR_DCRED | LTDC_LxDCCR_DCALPHA);
 8002024:	6805      	ldr	r5, [r0, #0]
 8002026:	4415      	add	r5, r2
 8002028:	f8d5 309c 	ldr.w	r3, [r5, #156]	; 0x9c
 800202c:	2400      	movs	r4, #0
 800202e:	f8c5 409c 	str.w	r4, [r5, #156]	; 0x9c
  LTDC_LAYER(hltdc, LayerIdx)->DCCR = (pLayerCfg->Backcolor.Blue | tmp | tmp1 | tmp2);
 8002032:	f891 3030 	ldrb.w	r3, [r1, #48]	; 0x30
 8002036:	ea43 230c 	orr.w	r3, r3, ip, lsl #8
 800203a:	ea43 4307 	orr.w	r3, r3, r7, lsl #16
 800203e:	6805      	ldr	r5, [r0, #0]
 8002040:	4415      	add	r5, r2
 8002042:	ea43 6306 	orr.w	r3, r3, r6, lsl #24
 8002046:	f8c5 309c 	str.w	r3, [r5, #156]	; 0x9c

  /* Specifies the constant alpha value */
  LTDC_LAYER(hltdc, LayerIdx)->CACR &= ~(LTDC_LxCACR_CONSTA);
 800204a:	6803      	ldr	r3, [r0, #0]
 800204c:	4413      	add	r3, r2
 800204e:	f8d3 5098 	ldr.w	r5, [r3, #152]	; 0x98
 8002052:	f025 05ff 	bic.w	r5, r5, #255	; 0xff
 8002056:	f8c3 5098 	str.w	r5, [r3, #152]	; 0x98
  LTDC_LAYER(hltdc, LayerIdx)->CACR = (pLayerCfg->Alpha);
 800205a:	6803      	ldr	r3, [r0, #0]
 800205c:	4413      	add	r3, r2
 800205e:	694d      	ldr	r5, [r1, #20]
 8002060:	f8c3 5098 	str.w	r5, [r3, #152]	; 0x98

  /* Specifies the blending factors */
  LTDC_LAYER(hltdc, LayerIdx)->BFCR &= ~(LTDC_LxBFCR_BF2 | LTDC_LxBFCR_BF1);
 8002064:	6803      	ldr	r3, [r0, #0]
 8002066:	4413      	add	r3, r2
 8002068:	f8d3 60a0 	ldr.w	r6, [r3, #160]	; 0xa0
 800206c:	4d2d      	ldr	r5, [pc, #180]	; (8002124 <LTDC_SetConfig+0x18c>)
 800206e:	4035      	ands	r5, r6
 8002070:	f8c3 50a0 	str.w	r5, [r3, #160]	; 0xa0
  LTDC_LAYER(hltdc, LayerIdx)->BFCR = (pLayerCfg->BlendingFactor1 | pLayerCfg->BlendingFactor2);
 8002074:	69cd      	ldr	r5, [r1, #28]
 8002076:	6a0e      	ldr	r6, [r1, #32]
 8002078:	6803      	ldr	r3, [r0, #0]
 800207a:	4413      	add	r3, r2
 800207c:	4335      	orrs	r5, r6
 800207e:	f8c3 50a0 	str.w	r5, [r3, #160]	; 0xa0

  /* Configure the color frame buffer start address */
  LTDC_LAYER(hltdc, LayerIdx)->CFBAR &= ~(LTDC_LxCFBAR_CFBADD);
 8002082:	6803      	ldr	r3, [r0, #0]
 8002084:	4413      	add	r3, r2
 8002086:	f8d3 50ac 	ldr.w	r5, [r3, #172]	; 0xac
 800208a:	f8c3 40ac 	str.w	r4, [r3, #172]	; 0xac
  LTDC_LAYER(hltdc, LayerIdx)->CFBAR = (pLayerCfg->FBStartAdress);
 800208e:	6803      	ldr	r3, [r0, #0]
 8002090:	4413      	add	r3, r2
 8002092:	6a4c      	ldr	r4, [r1, #36]	; 0x24
 8002094:	f8c3 40ac 	str.w	r4, [r3, #172]	; 0xac

  if (pLayerCfg->PixelFormat == LTDC_PIXEL_FORMAT_ARGB8888)
 8002098:	690b      	ldr	r3, [r1, #16]
 800209a:	b16b      	cbz	r3, 80020b8 <LTDC_SetConfig+0x120>
  {
    tmp = 4U;
  }
  else if (pLayerCfg->PixelFormat == LTDC_PIXEL_FORMAT_RGB888)
 800209c:	2b01      	cmp	r3, #1
 800209e:	d03a      	beq.n	8002116 <LTDC_SetConfig+0x17e>
  {
    tmp = 3U;
  }
  else if ((pLayerCfg->PixelFormat == LTDC_PIXEL_FORMAT_ARGB4444) || \
 80020a0:	2b02      	cmp	r3, #2
 80020a2:	bf18      	it	ne
 80020a4:	2b04      	cmpne	r3, #4
 80020a6:	d038      	beq.n	800211a <LTDC_SetConfig+0x182>
           (pLayerCfg->PixelFormat == LTDC_PIXEL_FORMAT_RGB565)   || \
 80020a8:	2b03      	cmp	r3, #3
 80020aa:	d038      	beq.n	800211e <LTDC_SetConfig+0x186>
           (pLayerCfg->PixelFormat == LTDC_PIXEL_FORMAT_ARGB1555) || \
 80020ac:	2b07      	cmp	r3, #7
 80020ae:	d001      	beq.n	80020b4 <LTDC_SetConfig+0x11c>
  {
    tmp = 2U;
  }
  else
  {
    tmp = 1U;
 80020b0:	2301      	movs	r3, #1
 80020b2:	e002      	b.n	80020ba <LTDC_SetConfig+0x122>
    tmp = 2U;
 80020b4:	2302      	movs	r3, #2
 80020b6:	e000      	b.n	80020ba <LTDC_SetConfig+0x122>
    tmp = 4U;
 80020b8:	2304      	movs	r3, #4
  }

  /* Configure the color frame buffer pitch in byte */
  LTDC_LAYER(hltdc, LayerIdx)->CFBLR  &= ~(LTDC_LxCFBLR_CFBLL | LTDC_LxCFBLR_CFBP);
 80020ba:	6804      	ldr	r4, [r0, #0]
 80020bc:	4414      	add	r4, r2
 80020be:	f8d4 50b0 	ldr.w	r5, [r4, #176]	; 0xb0
 80020c2:	f005 25e0 	and.w	r5, r5, #3758153728	; 0xe000e000
 80020c6:	f8c4 50b0 	str.w	r5, [r4, #176]	; 0xb0
  LTDC_LAYER(hltdc, LayerIdx)->CFBLR  = (((pLayerCfg->ImageWidth * tmp) << 16U) | (((pLayerCfg->WindowX1 - pLayerCfg->WindowX0) * tmp)  + 3U));
 80020ca:	6a8c      	ldr	r4, [r1, #40]	; 0x28
 80020cc:	fb03 f504 	mul.w	r5, r3, r4
 80020d0:	684c      	ldr	r4, [r1, #4]
 80020d2:	680e      	ldr	r6, [r1, #0]
 80020d4:	1ba4      	subs	r4, r4, r6
 80020d6:	fb03 f304 	mul.w	r3, r3, r4
 80020da:	3303      	adds	r3, #3
 80020dc:	6804      	ldr	r4, [r0, #0]
 80020de:	4414      	add	r4, r2
 80020e0:	ea43 4305 	orr.w	r3, r3, r5, lsl #16
 80020e4:	f8c4 30b0 	str.w	r3, [r4, #176]	; 0xb0
  /* Configure the frame buffer line number */
  LTDC_LAYER(hltdc, LayerIdx)->CFBLNR  &= ~(LTDC_LxCFBLNR_CFBLNBR);
 80020e8:	6803      	ldr	r3, [r0, #0]
 80020ea:	4413      	add	r3, r2
 80020ec:	f8d3 50b4 	ldr.w	r5, [r3, #180]	; 0xb4
 80020f0:	4c0d      	ldr	r4, [pc, #52]	; (8002128 <LTDC_SetConfig+0x190>)
 80020f2:	402c      	ands	r4, r5
 80020f4:	f8c3 40b4 	str.w	r4, [r3, #180]	; 0xb4
  LTDC_LAYER(hltdc, LayerIdx)->CFBLNR  = (pLayerCfg->ImageHeight);
 80020f8:	6803      	ldr	r3, [r0, #0]
 80020fa:	4413      	add	r3, r2
 80020fc:	6ac9      	ldr	r1, [r1, #44]	; 0x2c
 80020fe:	f8c3 10b4 	str.w	r1, [r3, #180]	; 0xb4

  /* Enable LTDC_Layer by setting LEN bit */
  LTDC_LAYER(hltdc, LayerIdx)->CR |= (uint32_t)LTDC_LxCR_LEN;
 8002102:	6803      	ldr	r3, [r0, #0]
 8002104:	441a      	add	r2, r3
 8002106:	f8d2 3084 	ldr.w	r3, [r2, #132]	; 0x84
 800210a:	f043 0301 	orr.w	r3, r3, #1
 800210e:	f8c2 3084 	str.w	r3, [r2, #132]	; 0x84
}
 8002112:	bcf0      	pop	{r4, r5, r6, r7}
 8002114:	4770      	bx	lr
    tmp = 3U;
 8002116:	2303      	movs	r3, #3
 8002118:	e7cf      	b.n	80020ba <LTDC_SetConfig+0x122>
    tmp = 2U;
 800211a:	2302      	movs	r3, #2
 800211c:	e7cd      	b.n	80020ba <LTDC_SetConfig+0x122>
 800211e:	2302      	movs	r3, #2
 8002120:	e7cb      	b.n	80020ba <LTDC_SetConfig+0x122>
 8002122:	bf00      	nop
 8002124:	fffff8f8 	.word	0xfffff8f8
 8002128:	fffff800 	.word	0xfffff800

0800212c <HAL_LTDC_Init>:
  if (hltdc == NULL)
 800212c:	2800      	cmp	r0, #0
 800212e:	d072      	beq.n	8002216 <HAL_LTDC_Init+0xea>
{
 8002130:	b538      	push	{r3, r4, r5, lr}
 8002132:	4604      	mov	r4, r0
  if (hltdc->State == HAL_LTDC_STATE_RESET)
 8002134:	f890 30a1 	ldrb.w	r3, [r0, #161]	; 0xa1
 8002138:	2b00      	cmp	r3, #0
 800213a:	d067      	beq.n	800220c <HAL_LTDC_Init+0xe0>
  hltdc->State = HAL_LTDC_STATE_BUSY;
 800213c:	2302      	movs	r3, #2
 800213e:	f884 30a1 	strb.w	r3, [r4, #161]	; 0xa1
  hltdc->Instance->GCR &= ~(LTDC_GCR_HSPOL | LTDC_GCR_VSPOL | LTDC_GCR_DEPOL | LTDC_GCR_PCPOL);
 8002142:	6822      	ldr	r2, [r4, #0]
 8002144:	6993      	ldr	r3, [r2, #24]
 8002146:	f023 4370 	bic.w	r3, r3, #4026531840	; 0xf0000000
 800214a:	6193      	str	r3, [r2, #24]
  hltdc->Instance->GCR |= (uint32_t)(hltdc->Init.HSPolarity | hltdc->Init.VSPolarity | \
 800214c:	6821      	ldr	r1, [r4, #0]
 800214e:	698a      	ldr	r2, [r1, #24]
 8002150:	6863      	ldr	r3, [r4, #4]
 8002152:	68a0      	ldr	r0, [r4, #8]
 8002154:	4303      	orrs	r3, r0
                                     hltdc->Init.DEPolarity | hltdc->Init.PCPolarity);
 8002156:	68e0      	ldr	r0, [r4, #12]
  hltdc->Instance->GCR |= (uint32_t)(hltdc->Init.HSPolarity | hltdc->Init.VSPolarity | \
 8002158:	4303      	orrs	r3, r0
                                     hltdc->Init.DEPolarity | hltdc->Init.PCPolarity);
 800215a:	6920      	ldr	r0, [r4, #16]
 800215c:	4303      	orrs	r3, r0
  hltdc->Instance->GCR |= (uint32_t)(hltdc->Init.HSPolarity | hltdc->Init.VSPolarity | \
 800215e:	4313      	orrs	r3, r2
 8002160:	618b      	str	r3, [r1, #24]
  hltdc->Instance->SSCR &= ~(LTDC_SSCR_VSH | LTDC_SSCR_HSW);
 8002162:	6821      	ldr	r1, [r4, #0]
 8002164:	688a      	ldr	r2, [r1, #8]
 8002166:	4b2d      	ldr	r3, [pc, #180]	; (800221c <HAL_LTDC_Init+0xf0>)
 8002168:	401a      	ands	r2, r3
 800216a:	608a      	str	r2, [r1, #8]
  tmp = (hltdc->Init.HorizontalSync << 16U);
 800216c:	6965      	ldr	r5, [r4, #20]
  hltdc->Instance->SSCR |= (tmp | hltdc->Init.VerticalSync);
 800216e:	6820      	ldr	r0, [r4, #0]
 8002170:	6882      	ldr	r2, [r0, #8]
 8002172:	69a1      	ldr	r1, [r4, #24]
 8002174:	ea41 4105 	orr.w	r1, r1, r5, lsl #16
 8002178:	430a      	orrs	r2, r1
 800217a:	6082      	str	r2, [r0, #8]
  hltdc->Instance->BPCR &= ~(LTDC_BPCR_AVBP | LTDC_BPCR_AHBP);
 800217c:	6821      	ldr	r1, [r4, #0]
 800217e:	68ca      	ldr	r2, [r1, #12]
 8002180:	401a      	ands	r2, r3
 8002182:	60ca      	str	r2, [r1, #12]
  tmp = (hltdc->Init.AccumulatedHBP << 16U);
 8002184:	69e5      	ldr	r5, [r4, #28]
  hltdc->Instance->BPCR |= (tmp | hltdc->Init.AccumulatedVBP);
 8002186:	6820      	ldr	r0, [r4, #0]
 8002188:	68c2      	ldr	r2, [r0, #12]
 800218a:	6a21      	ldr	r1, [r4, #32]
 800218c:	ea41 4105 	orr.w	r1, r1, r5, lsl #16
 8002190:	430a      	orrs	r2, r1
 8002192:	60c2      	str	r2, [r0, #12]
  hltdc->Instance->AWCR &= ~(LTDC_AWCR_AAH | LTDC_AWCR_AAW);
 8002194:	6821      	ldr	r1, [r4, #0]
 8002196:	690a      	ldr	r2, [r1, #16]
 8002198:	401a      	ands	r2, r3
 800219a:	610a      	str	r2, [r1, #16]
  tmp = (hltdc->Init.AccumulatedActiveW << 16U);
 800219c:	6a65      	ldr	r5, [r4, #36]	; 0x24
  hltdc->Instance->AWCR |= (tmp | hltdc->Init.AccumulatedActiveH);
 800219e:	6820      	ldr	r0, [r4, #0]
 80021a0:	6902      	ldr	r2, [r0, #16]
 80021a2:	6aa1      	ldr	r1, [r4, #40]	; 0x28
 80021a4:	ea41 4105 	orr.w	r1, r1, r5, lsl #16
 80021a8:	430a      	orrs	r2, r1
 80021aa:	6102      	str	r2, [r0, #16]
  hltdc->Instance->TWCR &= ~(LTDC_TWCR_TOTALH | LTDC_TWCR_TOTALW);
 80021ac:	6821      	ldr	r1, [r4, #0]
 80021ae:	694a      	ldr	r2, [r1, #20]
 80021b0:	4013      	ands	r3, r2
 80021b2:	614b      	str	r3, [r1, #20]
  tmp = (hltdc->Init.TotalWidth << 16U);
 80021b4:	6ae0      	ldr	r0, [r4, #44]	; 0x2c
  hltdc->Instance->TWCR |= (tmp | hltdc->Init.TotalHeigh);
 80021b6:	6821      	ldr	r1, [r4, #0]
 80021b8:	694b      	ldr	r3, [r1, #20]
 80021ba:	6b22      	ldr	r2, [r4, #48]	; 0x30
 80021bc:	ea42 4200 	orr.w	r2, r2, r0, lsl #16
 80021c0:	4313      	orrs	r3, r2
 80021c2:	614b      	str	r3, [r1, #20]
  tmp = ((uint32_t)(hltdc->Init.Backcolor.Green) << 8U);
 80021c4:	f894 0035 	ldrb.w	r0, [r4, #53]	; 0x35
  tmp1 = ((uint32_t)(hltdc->Init.Backcolor.Red) << 16U);
 80021c8:	f894 3036 	ldrb.w	r3, [r4, #54]	; 0x36
 80021cc:	041b      	lsls	r3, r3, #16
  hltdc->Instance->BCCR &= ~(LTDC_BCCR_BCBLUE | LTDC_BCCR_BCGREEN | LTDC_BCCR_BCRED);
 80021ce:	6821      	ldr	r1, [r4, #0]
 80021d0:	6aca      	ldr	r2, [r1, #44]	; 0x2c
 80021d2:	f002 427f 	and.w	r2, r2, #4278190080	; 0xff000000
 80021d6:	62ca      	str	r2, [r1, #44]	; 0x2c
  hltdc->Instance->BCCR |= (tmp1 | tmp | hltdc->Init.Backcolor.Blue);
 80021d8:	6821      	ldr	r1, [r4, #0]
 80021da:	6aca      	ldr	r2, [r1, #44]	; 0x2c
 80021dc:	ea43 2300 	orr.w	r3, r3, r0, lsl #8
 80021e0:	f894 0034 	ldrb.w	r0, [r4, #52]	; 0x34
 80021e4:	4303      	orrs	r3, r0
 80021e6:	4313      	orrs	r3, r2
 80021e8:	62cb      	str	r3, [r1, #44]	; 0x2c
  __HAL_LTDC_ENABLE_IT(hltdc, LTDC_IT_TE | LTDC_IT_FU);
 80021ea:	6822      	ldr	r2, [r4, #0]
 80021ec:	6b53      	ldr	r3, [r2, #52]	; 0x34
 80021ee:	f043 0306 	orr.w	r3, r3, #6
 80021f2:	6353      	str	r3, [r2, #52]	; 0x34
  __HAL_LTDC_ENABLE(hltdc);
 80021f4:	6822      	ldr	r2, [r4, #0]
 80021f6:	6993      	ldr	r3, [r2, #24]
 80021f8:	f043 0301 	orr.w	r3, r3, #1
 80021fc:	6193      	str	r3, [r2, #24]
  hltdc->ErrorCode = HAL_LTDC_ERROR_NONE;
 80021fe:	2000      	movs	r0, #0
 8002200:	f8c4 00a4 	str.w	r0, [r4, #164]	; 0xa4
  hltdc->State = HAL_LTDC_STATE_READY;
 8002204:	2301      	movs	r3, #1
 8002206:	f884 30a1 	strb.w	r3, [r4, #161]	; 0xa1
}
 800220a:	bd38      	pop	{r3, r4, r5, pc}
    hltdc->Lock = HAL_UNLOCKED;
 800220c:	f880 30a0 	strb.w	r3, [r0, #160]	; 0xa0
    HAL_LTDC_MspInit(hltdc);
 8002210:	f7ff f9d6 	bl	80015c0 <HAL_LTDC_MspInit>
 8002214:	e792      	b.n	800213c <HAL_LTDC_Init+0x10>
    return HAL_ERROR;
 8002216:	2001      	movs	r0, #1
}
 8002218:	4770      	bx	lr
 800221a:	bf00      	nop
 800221c:	f000f800 	.word	0xf000f800

08002220 <HAL_LTDC_ErrorCallback>:
}
 8002220:	4770      	bx	lr

08002222 <HAL_LTDC_LineEventCallback>:
}
 8002222:	4770      	bx	lr

08002224 <HAL_LTDC_ReloadEventCallback>:
}
 8002224:	4770      	bx	lr

08002226 <HAL_LTDC_IRQHandler>:
{
 8002226:	b570      	push	{r4, r5, r6, lr}
 8002228:	4604      	mov	r4, r0
  uint32_t isrflags  = READ_REG(hltdc->Instance->ISR);
 800222a:	6803      	ldr	r3, [r0, #0]
 800222c:	6b9d      	ldr	r5, [r3, #56]	; 0x38
  uint32_t itsources = READ_REG(hltdc->Instance->IER);
 800222e:	6b5e      	ldr	r6, [r3, #52]	; 0x34
  if (((isrflags & LTDC_ISR_TERRIF) != 0U) && ((itsources & LTDC_IER_TERRIE) != 0U))
 8002230:	f015 0f04 	tst.w	r5, #4
 8002234:	d002      	beq.n	800223c <HAL_LTDC_IRQHandler+0x16>
 8002236:	f016 0f04 	tst.w	r6, #4
 800223a:	d112      	bne.n	8002262 <HAL_LTDC_IRQHandler+0x3c>
  if (((isrflags & LTDC_ISR_FUIF) != 0U) && ((itsources & LTDC_IER_FUIE) != 0U))
 800223c:	f015 0f02 	tst.w	r5, #2
 8002240:	d002      	beq.n	8002248 <HAL_LTDC_IRQHandler+0x22>
 8002242:	f016 0f02 	tst.w	r6, #2
 8002246:	d121      	bne.n	800228c <HAL_LTDC_IRQHandler+0x66>
  if (((isrflags & LTDC_ISR_LIF) != 0U) && ((itsources & LTDC_IER_LIE) != 0U))
 8002248:	f015 0f01 	tst.w	r5, #1
 800224c:	d002      	beq.n	8002254 <HAL_LTDC_IRQHandler+0x2e>
 800224e:	f016 0f01 	tst.w	r6, #1
 8002252:	d132      	bne.n	80022ba <HAL_LTDC_IRQHandler+0x94>
  if (((isrflags & LTDC_ISR_RRIF) != 0U) && ((itsources & LTDC_IER_RRIE) != 0U))
 8002254:	f015 0f08 	tst.w	r5, #8
 8002258:	d002      	beq.n	8002260 <HAL_LTDC_IRQHandler+0x3a>
 800225a:	f016 0f08 	tst.w	r6, #8
 800225e:	d13d      	bne.n	80022dc <HAL_LTDC_IRQHandler+0xb6>
}
 8002260:	bd70      	pop	{r4, r5, r6, pc}
    __HAL_LTDC_DISABLE_IT(hltdc, LTDC_IT_TE);
 8002262:	6b5a      	ldr	r2, [r3, #52]	; 0x34
 8002264:	f022 0204 	bic.w	r2, r2, #4
 8002268:	635a      	str	r2, [r3, #52]	; 0x34
    __HAL_LTDC_CLEAR_FLAG(hltdc, LTDC_FLAG_TE);
 800226a:	6803      	ldr	r3, [r0, #0]
 800226c:	2204      	movs	r2, #4
 800226e:	63da      	str	r2, [r3, #60]	; 0x3c
    hltdc->ErrorCode |= HAL_LTDC_ERROR_TE;
 8002270:	f8d0 30a4 	ldr.w	r3, [r0, #164]	; 0xa4
 8002274:	f043 0301 	orr.w	r3, r3, #1
 8002278:	f8c0 30a4 	str.w	r3, [r0, #164]	; 0xa4
    hltdc->State = HAL_LTDC_STATE_ERROR;
 800227c:	f880 20a1 	strb.w	r2, [r0, #161]	; 0xa1
    __HAL_UNLOCK(hltdc);
 8002280:	2300      	movs	r3, #0
 8002282:	f880 30a0 	strb.w	r3, [r0, #160]	; 0xa0
    HAL_LTDC_ErrorCallback(hltdc);
 8002286:	f7ff ffcb 	bl	8002220 <HAL_LTDC_ErrorCallback>
 800228a:	e7d7      	b.n	800223c <HAL_LTDC_IRQHandler+0x16>
    __HAL_LTDC_DISABLE_IT(hltdc, LTDC_IT_FU);
 800228c:	6822      	ldr	r2, [r4, #0]
 800228e:	6b53      	ldr	r3, [r2, #52]	; 0x34
 8002290:	f023 0302 	bic.w	r3, r3, #2
 8002294:	6353      	str	r3, [r2, #52]	; 0x34
    __HAL_LTDC_CLEAR_FLAG(hltdc, LTDC_FLAG_FU);
 8002296:	6823      	ldr	r3, [r4, #0]
 8002298:	2202      	movs	r2, #2
 800229a:	63da      	str	r2, [r3, #60]	; 0x3c
    hltdc->ErrorCode |= HAL_LTDC_ERROR_FU;
 800229c:	f8d4 30a4 	ldr.w	r3, [r4, #164]	; 0xa4
 80022a0:	4313      	orrs	r3, r2
 80022a2:	f8c4 30a4 	str.w	r3, [r4, #164]	; 0xa4
    hltdc->State = HAL_LTDC_STATE_ERROR;
 80022a6:	2304      	movs	r3, #4
 80022a8:	f884 30a1 	strb.w	r3, [r4, #161]	; 0xa1
    __HAL_UNLOCK(hltdc);
 80022ac:	2300      	movs	r3, #0
 80022ae:	f884 30a0 	strb.w	r3, [r4, #160]	; 0xa0
    HAL_LTDC_ErrorCallback(hltdc);
 80022b2:	4620      	mov	r0, r4
 80022b4:	f7ff ffb4 	bl	8002220 <HAL_LTDC_ErrorCallback>
 80022b8:	e7c6      	b.n	8002248 <HAL_LTDC_IRQHandler+0x22>
    __HAL_LTDC_DISABLE_IT(hltdc, LTDC_IT_LI);
 80022ba:	6822      	ldr	r2, [r4, #0]
 80022bc:	6b53      	ldr	r3, [r2, #52]	; 0x34
 80022be:	f023 0301 	bic.w	r3, r3, #1
 80022c2:	6353      	str	r3, [r2, #52]	; 0x34
    __HAL_LTDC_CLEAR_FLAG(hltdc, LTDC_FLAG_LI);
 80022c4:	6822      	ldr	r2, [r4, #0]
 80022c6:	2301      	movs	r3, #1
 80022c8:	63d3      	str	r3, [r2, #60]	; 0x3c
    hltdc->State = HAL_LTDC_STATE_READY;
 80022ca:	f884 30a1 	strb.w	r3, [r4, #161]	; 0xa1
    __HAL_UNLOCK(hltdc);
 80022ce:	2300      	movs	r3, #0
 80022d0:	f884 30a0 	strb.w	r3, [r4, #160]	; 0xa0
    HAL_LTDC_LineEventCallback(hltdc);
 80022d4:	4620      	mov	r0, r4
 80022d6:	f7ff ffa4 	bl	8002222 <HAL_LTDC_LineEventCallback>
 80022da:	e7bb      	b.n	8002254 <HAL_LTDC_IRQHandler+0x2e>
    __HAL_LTDC_DISABLE_IT(hltdc, LTDC_IT_RR);
 80022dc:	6822      	ldr	r2, [r4, #0]
 80022de:	6b53      	ldr	r3, [r2, #52]	; 0x34
 80022e0:	f023 0308 	bic.w	r3, r3, #8
 80022e4:	6353      	str	r3, [r2, #52]	; 0x34
    __HAL_LTDC_CLEAR_FLAG(hltdc, LTDC_FLAG_RR);
 80022e6:	6823      	ldr	r3, [r4, #0]
 80022e8:	2208      	movs	r2, #8
 80022ea:	63da      	str	r2, [r3, #60]	; 0x3c
    hltdc->State = HAL_LTDC_STATE_READY;
 80022ec:	2301      	movs	r3, #1
 80022ee:	f884 30a1 	strb.w	r3, [r4, #161]	; 0xa1
    __HAL_UNLOCK(hltdc);
 80022f2:	2300      	movs	r3, #0
 80022f4:	f884 30a0 	strb.w	r3, [r4, #160]	; 0xa0
    HAL_LTDC_ReloadEventCallback(hltdc);
 80022f8:	4620      	mov	r0, r4
 80022fa:	f7ff ff93 	bl	8002224 <HAL_LTDC_ReloadEventCallback>
}
 80022fe:	e7af      	b.n	8002260 <HAL_LTDC_IRQHandler+0x3a>

08002300 <HAL_LTDC_ConfigLayer>:
  __HAL_LOCK(hltdc);
 8002300:	f890 30a0 	ldrb.w	r3, [r0, #160]	; 0xa0
 8002304:	2b01      	cmp	r3, #1
 8002306:	d027      	beq.n	8002358 <HAL_LTDC_ConfigLayer+0x58>
{
 8002308:	e92d 41f0 	stmdb	sp!, {r4, r5, r6, r7, r8, lr}
 800230c:	4694      	mov	ip, r2
 800230e:	460f      	mov	r7, r1
 8002310:	4606      	mov	r6, r0
  __HAL_LOCK(hltdc);
 8002312:	f04f 0801 	mov.w	r8, #1
 8002316:	f880 80a0 	strb.w	r8, [r0, #160]	; 0xa0
  hltdc->State = HAL_LTDC_STATE_BUSY;
 800231a:	2302      	movs	r3, #2
 800231c:	f880 30a1 	strb.w	r3, [r0, #161]	; 0xa1
  hltdc->LayerCfg[LayerIdx] = *pLayerCfg;
 8002320:	2434      	movs	r4, #52	; 0x34
 8002322:	fb04 0402 	mla	r4, r4, r2, r0
 8002326:	3438      	adds	r4, #56	; 0x38
 8002328:	460d      	mov	r5, r1
 800232a:	cd0f      	ldmia	r5!, {r0, r1, r2, r3}
 800232c:	c40f      	stmia	r4!, {r0, r1, r2, r3}
 800232e:	cd0f      	ldmia	r5!, {r0, r1, r2, r3}
 8002330:	c40f      	stmia	r4!, {r0, r1, r2, r3}
 8002332:	cd0f      	ldmia	r5!, {r0, r1, r2, r3}
 8002334:	c40f      	stmia	r4!, {r0, r1, r2, r3}
 8002336:	682b      	ldr	r3, [r5, #0]
 8002338:	6023      	str	r3, [r4, #0]
  LTDC_SetConfig(hltdc, pLayerCfg, LayerIdx);
 800233a:	4662      	mov	r2, ip
 800233c:	4639      	mov	r1, r7
 800233e:	4630      	mov	r0, r6
 8002340:	f7ff fe2a 	bl	8001f98 <LTDC_SetConfig>
  hltdc->Instance->SRCR = LTDC_SRCR_IMR;
 8002344:	6833      	ldr	r3, [r6, #0]
 8002346:	f8c3 8024 	str.w	r8, [r3, #36]	; 0x24
  hltdc->State  = HAL_LTDC_STATE_READY;
 800234a:	f886 80a1 	strb.w	r8, [r6, #161]	; 0xa1
  __HAL_UNLOCK(hltdc);
 800234e:	2000      	movs	r0, #0
 8002350:	f886 00a0 	strb.w	r0, [r6, #160]	; 0xa0
}
 8002354:	e8bd 81f0 	ldmia.w	sp!, {r4, r5, r6, r7, r8, pc}
  __HAL_LOCK(hltdc);
 8002358:	2002      	movs	r0, #2
}
 800235a:	4770      	bx	lr

0800235c <HAL_LTDC_SetAddress>:
{
 800235c:	b538      	push	{r3, r4, r5, lr}
  __HAL_LOCK(hltdc);
 800235e:	f890 30a0 	ldrb.w	r3, [r0, #160]	; 0xa0
 8002362:	2b01      	cmp	r3, #1
 8002364:	d019      	beq.n	800239a <HAL_LTDC_SetAddress+0x3e>
 8002366:	4604      	mov	r4, r0
 8002368:	2501      	movs	r5, #1
 800236a:	f880 50a0 	strb.w	r5, [r0, #160]	; 0xa0
  hltdc->State = HAL_LTDC_STATE_BUSY;
 800236e:	2302      	movs	r3, #2
 8002370:	f880 30a1 	strb.w	r3, [r0, #161]	; 0xa1
  pLayerCfg = &hltdc->LayerCfg[LayerIdx];
 8002374:	2334      	movs	r3, #52	; 0x34
 8002376:	fb03 f302 	mul.w	r3, r3, r2
 800237a:	f103 0038 	add.w	r0, r3, #56	; 0x38
  pLayerCfg->FBStartAdress = Address;
 800237e:	4423      	add	r3, r4
 8002380:	65d9      	str	r1, [r3, #92]	; 0x5c
  LTDC_SetConfig(hltdc, pLayerCfg, LayerIdx);
 8002382:	1821      	adds	r1, r4, r0
 8002384:	4620      	mov	r0, r4
 8002386:	f7ff fe07 	bl	8001f98 <LTDC_SetConfig>
  hltdc->Instance->SRCR = LTDC_SRCR_IMR;
 800238a:	6823      	ldr	r3, [r4, #0]
 800238c:	625d      	str	r5, [r3, #36]	; 0x24
  hltdc->State = HAL_LTDC_STATE_READY;
 800238e:	f884 50a1 	strb.w	r5, [r4, #161]	; 0xa1
  __HAL_UNLOCK(hltdc);
 8002392:	2000      	movs	r0, #0
 8002394:	f884 00a0 	strb.w	r0, [r4, #160]	; 0xa0
}
 8002398:	bd38      	pop	{r3, r4, r5, pc}
  __HAL_LOCK(hltdc);
 800239a:	2002      	movs	r0, #2
 800239c:	e7fc      	b.n	8002398 <HAL_LTDC_SetAddress+0x3c>
	...

080023a0 <HAL_PWR_EnableBkUpAccess>:
  * @retval None
  */
void HAL_PWR_EnableBkUpAccess(void)
{
  /* Enable access to RTC and backup registers */
  SET_BIT(PWR->CR1, PWR_CR1_DBP);
 80023a0:	4a02      	ldr	r2, [pc, #8]	; (80023ac <HAL_PWR_EnableBkUpAccess+0xc>)
 80023a2:	6813      	ldr	r3, [r2, #0]
 80023a4:	f443 7380 	orr.w	r3, r3, #256	; 0x100
 80023a8:	6013      	str	r3, [r2, #0]
}
 80023aa:	4770      	bx	lr
 80023ac:	40007000 	.word	0x40007000

080023b0 <HAL_PWREx_EnableOverDrive>:
  *         During the Over-drive switch activation, no peripheral clocks should be enabled.   
  *         The peripheral clocks must be enabled once the Over-drive mode is activated.   
  * @retval HAL status
  */
HAL_StatusTypeDef HAL_PWREx_EnableOverDrive(void)
{
 80023b0:	b510      	push	{r4, lr}
 80023b2:	b082      	sub	sp, #8
  uint32_t tickstart = 0;

  __HAL_RCC_PWR_CLK_ENABLE();
 80023b4:	4b1b      	ldr	r3, [pc, #108]	; (8002424 <HAL_PWREx_EnableOverDrive+0x74>)
 80023b6:	6c1a      	ldr	r2, [r3, #64]	; 0x40
 80023b8:	f042 5280 	orr.w	r2, r2, #268435456	; 0x10000000
 80023bc:	641a      	str	r2, [r3, #64]	; 0x40
 80023be:	6c1b      	ldr	r3, [r3, #64]	; 0x40
 80023c0:	f003 5380 	and.w	r3, r3, #268435456	; 0x10000000
 80023c4:	9301      	str	r3, [sp, #4]
 80023c6:	9b01      	ldr	r3, [sp, #4]
  
  /* Enable the Over-drive to extend the clock frequency to 216 MHz */
  __HAL_PWR_OVERDRIVE_ENABLE();
 80023c8:	4a17      	ldr	r2, [pc, #92]	; (8002428 <HAL_PWREx_EnableOverDrive+0x78>)
 80023ca:	6813      	ldr	r3, [r2, #0]
 80023cc:	f443 3380 	orr.w	r3, r3, #65536	; 0x10000
 80023d0:	6013      	str	r3, [r2, #0]

  /* Get tick */
  tickstart = HAL_GetTick();
 80023d2:	f7ff fa4d 	bl	8001870 <HAL_GetTick>
 80023d6:	4604      	mov	r4, r0

  while(!__HAL_PWR_GET_FLAG(PWR_FLAG_ODRDY))
 80023d8:	4b13      	ldr	r3, [pc, #76]	; (8002428 <HAL_PWREx_EnableOverDrive+0x78>)
 80023da:	685b      	ldr	r3, [r3, #4]
 80023dc:	f413 3f80 	tst.w	r3, #65536	; 0x10000
 80023e0:	d108      	bne.n	80023f4 <HAL_PWREx_EnableOverDrive+0x44>
  {
    if((HAL_GetTick() - tickstart ) > PWR_OVERDRIVE_TIMEOUT_VALUE)
 80023e2:	f7ff fa45 	bl	8001870 <HAL_GetTick>
 80023e6:	1b00      	subs	r0, r0, r4
 80023e8:	f5b0 7f7a 	cmp.w	r0, #1000	; 0x3e8
 80023ec:	d9f4      	bls.n	80023d8 <HAL_PWREx_EnableOverDrive+0x28>
    {
      return HAL_TIMEOUT;
 80023ee:	2003      	movs	r0, #3
    {
      return HAL_TIMEOUT;
    }
  } 
  return HAL_OK;
}
 80023f0:	b002      	add	sp, #8
 80023f2:	bd10      	pop	{r4, pc}
  __HAL_PWR_OVERDRIVESWITCHING_ENABLE();
 80023f4:	4a0c      	ldr	r2, [pc, #48]	; (8002428 <HAL_PWREx_EnableOverDrive+0x78>)
 80023f6:	6813      	ldr	r3, [r2, #0]
 80023f8:	f443 3300 	orr.w	r3, r3, #131072	; 0x20000
 80023fc:	6013      	str	r3, [r2, #0]
  tickstart = HAL_GetTick();
 80023fe:	f7ff fa37 	bl	8001870 <HAL_GetTick>
 8002402:	4604      	mov	r4, r0
  while(!__HAL_PWR_GET_FLAG(PWR_FLAG_ODSWRDY))
 8002404:	4b08      	ldr	r3, [pc, #32]	; (8002428 <HAL_PWREx_EnableOverDrive+0x78>)
 8002406:	685b      	ldr	r3, [r3, #4]
 8002408:	f413 3f00 	tst.w	r3, #131072	; 0x20000
 800240c:	d107      	bne.n	800241e <HAL_PWREx_EnableOverDrive+0x6e>
    if((HAL_GetTick() - tickstart ) > PWR_OVERDRIVE_TIMEOUT_VALUE)
 800240e:	f7ff fa2f 	bl	8001870 <HAL_GetTick>
 8002412:	1b00      	subs	r0, r0, r4
 8002414:	f5b0 7f7a 	cmp.w	r0, #1000	; 0x3e8
 8002418:	d9f4      	bls.n	8002404 <HAL_PWREx_EnableOverDrive+0x54>
      return HAL_TIMEOUT;
 800241a:	2003      	movs	r0, #3
 800241c:	e7e8      	b.n	80023f0 <HAL_PWREx_EnableOverDrive+0x40>
  return HAL_OK;
 800241e:	2000      	movs	r0, #0
 8002420:	e7e6      	b.n	80023f0 <HAL_PWREx_EnableOverDrive+0x40>
 8002422:	bf00      	nop
 8002424:	40023800 	.word	0x40023800
 8002428:	40007000 	.word	0x40007000

0800242c <HAL_RCC_OscConfig>:
  uint32_t tickstart;
  uint32_t pll_config;
  FlagStatus pwrclkchanged = RESET;

  /* Check Null pointer */
  if (RCC_OscInitStruct == NULL)
 800242c:	2800      	cmp	r0, #0
 800242e:	f000 8209 	beq.w	8002844 <HAL_RCC_OscConfig+0x418>
{
 8002432:	b570      	push	{r4, r5, r6, lr}
 8002434:	b082      	sub	sp, #8
 8002436:	4604      	mov	r4, r0

  /* Check the parameters */
  assert_param(IS_RCC_OSCILLATORTYPE(RCC_OscInitStruct->OscillatorType));

  /*------------------------------- HSE Configuration ------------------------*/
  if (((RCC_OscInitStruct->OscillatorType) & RCC_OSCILLATORTYPE_HSE) == RCC_OSCILLATORTYPE_HSE)
 8002438:	6803      	ldr	r3, [r0, #0]
 800243a:	f013 0f01 	tst.w	r3, #1
 800243e:	d029      	beq.n	8002494 <HAL_RCC_OscConfig+0x68>
  {
    /* Check the parameters */
    assert_param(IS_RCC_HSE(RCC_OscInitStruct->HSEState));
    /* When the HSE is used as system clock or clock source for PLL, It can not be disabled */
    if ((__HAL_RCC_GET_SYSCLK_SOURCE() == RCC_SYSCLKSOURCE_STATUS_HSE)
 8002440:	4ba2      	ldr	r3, [pc, #648]	; (80026cc <HAL_RCC_OscConfig+0x2a0>)
 8002442:	689b      	ldr	r3, [r3, #8]
 8002444:	f003 030c 	and.w	r3, r3, #12
 8002448:	2b04      	cmp	r3, #4
 800244a:	d01a      	beq.n	8002482 <HAL_RCC_OscConfig+0x56>
        || ((__HAL_RCC_GET_SYSCLK_SOURCE() == RCC_SYSCLKSOURCE_STATUS_PLLCLK) && ((RCC->PLLCFGR & RCC_PLLCFGR_PLLSRC) == RCC_PLLCFGR_PLLSRC_HSE)))
 800244c:	4b9f      	ldr	r3, [pc, #636]	; (80026cc <HAL_RCC_OscConfig+0x2a0>)
 800244e:	689b      	ldr	r3, [r3, #8]
 8002450:	f003 030c 	and.w	r3, r3, #12
 8002454:	2b08      	cmp	r3, #8
 8002456:	d00f      	beq.n	8002478 <HAL_RCC_OscConfig+0x4c>
      }
    }
    else
    {
      /* Set the new HSE configuration ---------------------------------------*/
      __HAL_RCC_HSE_CONFIG(RCC_OscInitStruct->HSEState);
 8002458:	6863      	ldr	r3, [r4, #4]
 800245a:	f5b3 3f80 	cmp.w	r3, #65536	; 0x10000
 800245e:	d040      	beq.n	80024e2 <HAL_RCC_OscConfig+0xb6>
 8002460:	2b00      	cmp	r3, #0
 8002462:	d154      	bne.n	800250e <HAL_RCC_OscConfig+0xe2>
 8002464:	4b99      	ldr	r3, [pc, #612]	; (80026cc <HAL_RCC_OscConfig+0x2a0>)
 8002466:	681a      	ldr	r2, [r3, #0]
 8002468:	f422 3280 	bic.w	r2, r2, #65536	; 0x10000
 800246c:	601a      	str	r2, [r3, #0]
 800246e:	681a      	ldr	r2, [r3, #0]
 8002470:	f422 2280 	bic.w	r2, r2, #262144	; 0x40000
 8002474:	601a      	str	r2, [r3, #0]
 8002476:	e039      	b.n	80024ec <HAL_RCC_OscConfig+0xc0>
        || ((__HAL_RCC_GET_SYSCLK_SOURCE() == RCC_SYSCLKSOURCE_STATUS_PLLCLK) && ((RCC->PLLCFGR & RCC_PLLCFGR_PLLSRC) == RCC_PLLCFGR_PLLSRC_HSE)))
 8002478:	4b94      	ldr	r3, [pc, #592]	; (80026cc <HAL_RCC_OscConfig+0x2a0>)
 800247a:	685b      	ldr	r3, [r3, #4]
 800247c:	f413 0f80 	tst.w	r3, #4194304	; 0x400000
 8002480:	d0ea      	beq.n	8002458 <HAL_RCC_OscConfig+0x2c>
      if ((__HAL_RCC_GET_FLAG(RCC_FLAG_HSERDY) != RESET) && (RCC_OscInitStruct->HSEState == RCC_HSE_OFF))
 8002482:	4b92      	ldr	r3, [pc, #584]	; (80026cc <HAL_RCC_OscConfig+0x2a0>)
 8002484:	681b      	ldr	r3, [r3, #0]
 8002486:	f413 3f00 	tst.w	r3, #131072	; 0x20000
 800248a:	d003      	beq.n	8002494 <HAL_RCC_OscConfig+0x68>
 800248c:	6863      	ldr	r3, [r4, #4]
 800248e:	2b00      	cmp	r3, #0
 8002490:	f000 81da 	beq.w	8002848 <HAL_RCC_OscConfig+0x41c>
        }
      }
    }
  }
  /*----------------------------- HSI Configuration --------------------------*/
  if (((RCC_OscInitStruct->OscillatorType) & RCC_OSCILLATORTYPE_HSI) == RCC_OSCILLATORTYPE_HSI)
 8002494:	6823      	ldr	r3, [r4, #0]
 8002496:	f013 0f02 	tst.w	r3, #2
 800249a:	d075      	beq.n	8002588 <HAL_RCC_OscConfig+0x15c>
    /* Check the parameters */
    assert_param(IS_RCC_HSI(RCC_OscInitStruct->HSIState));
    assert_param(IS_RCC_CALIBRATION_VALUE(RCC_OscInitStruct->HSICalibrationValue));

    /* Check if HSI is used as system clock or as PLL source when PLL is selected as system clock */
    if ((__HAL_RCC_GET_SYSCLK_SOURCE() == RCC_SYSCLKSOURCE_STATUS_HSI)
 800249c:	4b8b      	ldr	r3, [pc, #556]	; (80026cc <HAL_RCC_OscConfig+0x2a0>)
 800249e:	689b      	ldr	r3, [r3, #8]
 80024a0:	f013 0f0c 	tst.w	r3, #12
 80024a4:	d05e      	beq.n	8002564 <HAL_RCC_OscConfig+0x138>
        || ((__HAL_RCC_GET_SYSCLK_SOURCE() == RCC_SYSCLKSOURCE_STATUS_PLLCLK) && ((RCC->PLLCFGR & RCC_PLLCFGR_PLLSRC) == RCC_PLLCFGR_PLLSRC_HSI)))
 80024a6:	4b89      	ldr	r3, [pc, #548]	; (80026cc <HAL_RCC_OscConfig+0x2a0>)
 80024a8:	689b      	ldr	r3, [r3, #8]
 80024aa:	f003 030c 	and.w	r3, r3, #12
 80024ae:	2b08      	cmp	r3, #8
 80024b0:	d053      	beq.n	800255a <HAL_RCC_OscConfig+0x12e>
      }
    }
    else
    {
      /* Check the HSI State */
      if ((RCC_OscInitStruct->HSIState) != RCC_HSI_OFF)
 80024b2:	68e3      	ldr	r3, [r4, #12]
 80024b4:	2b00      	cmp	r3, #0
 80024b6:	f000 808a 	beq.w	80025ce <HAL_RCC_OscConfig+0x1a2>
      {
        /* Enable the Internal High Speed oscillator (HSI). */
        __HAL_RCC_HSI_ENABLE();
 80024ba:	4a84      	ldr	r2, [pc, #528]	; (80026cc <HAL_RCC_OscConfig+0x2a0>)
 80024bc:	6813      	ldr	r3, [r2, #0]
 80024be:	f043 0301 	orr.w	r3, r3, #1
 80024c2:	6013      	str	r3, [r2, #0]

        /* Get Start Tick*/
        tickstart = HAL_GetTick();
 80024c4:	f7ff f9d4 	bl	8001870 <HAL_GetTick>
 80024c8:	4605      	mov	r5, r0

        /* Wait till HSI is ready */
        while (__HAL_RCC_GET_FLAG(RCC_FLAG_HSIRDY) == RESET)
 80024ca:	4b80      	ldr	r3, [pc, #512]	; (80026cc <HAL_RCC_OscConfig+0x2a0>)
 80024cc:	681b      	ldr	r3, [r3, #0]
 80024ce:	f013 0f02 	tst.w	r3, #2
 80024d2:	d173      	bne.n	80025bc <HAL_RCC_OscConfig+0x190>
        {
          if ((HAL_GetTick() - tickstart) > HSI_TIMEOUT_VALUE)
 80024d4:	f7ff f9cc 	bl	8001870 <HAL_GetTick>
 80024d8:	1b40      	subs	r0, r0, r5
 80024da:	2802      	cmp	r0, #2
 80024dc:	d9f5      	bls.n	80024ca <HAL_RCC_OscConfig+0x9e>
          {
            return HAL_TIMEOUT;
 80024de:	2003      	movs	r0, #3
 80024e0:	e1b5      	b.n	800284e <HAL_RCC_OscConfig+0x422>
      __HAL_RCC_HSE_CONFIG(RCC_OscInitStruct->HSEState);
 80024e2:	4a7a      	ldr	r2, [pc, #488]	; (80026cc <HAL_RCC_OscConfig+0x2a0>)
 80024e4:	6813      	ldr	r3, [r2, #0]
 80024e6:	f443 3380 	orr.w	r3, r3, #65536	; 0x10000
 80024ea:	6013      	str	r3, [r2, #0]
      if (RCC_OscInitStruct->HSEState != RCC_HSE_OFF)
 80024ec:	6863      	ldr	r3, [r4, #4]
 80024ee:	b32b      	cbz	r3, 800253c <HAL_RCC_OscConfig+0x110>
        tickstart = HAL_GetTick();
 80024f0:	f7ff f9be 	bl	8001870 <HAL_GetTick>
 80024f4:	4605      	mov	r5, r0
        while (__HAL_RCC_GET_FLAG(RCC_FLAG_HSERDY) == RESET)
 80024f6:	4b75      	ldr	r3, [pc, #468]	; (80026cc <HAL_RCC_OscConfig+0x2a0>)
 80024f8:	681b      	ldr	r3, [r3, #0]
 80024fa:	f413 3f00 	tst.w	r3, #131072	; 0x20000
 80024fe:	d1c9      	bne.n	8002494 <HAL_RCC_OscConfig+0x68>
          if ((HAL_GetTick() - tickstart) > HSE_TIMEOUT_VALUE)
 8002500:	f7ff f9b6 	bl	8001870 <HAL_GetTick>
 8002504:	1b40      	subs	r0, r0, r5
 8002506:	2864      	cmp	r0, #100	; 0x64
 8002508:	d9f5      	bls.n	80024f6 <HAL_RCC_OscConfig+0xca>
            return HAL_TIMEOUT;
 800250a:	2003      	movs	r0, #3
 800250c:	e19f      	b.n	800284e <HAL_RCC_OscConfig+0x422>
      __HAL_RCC_HSE_CONFIG(RCC_OscInitStruct->HSEState);
 800250e:	f5b3 2fa0 	cmp.w	r3, #327680	; 0x50000
 8002512:	d009      	beq.n	8002528 <HAL_RCC_OscConfig+0xfc>
 8002514:	4b6d      	ldr	r3, [pc, #436]	; (80026cc <HAL_RCC_OscConfig+0x2a0>)
 8002516:	681a      	ldr	r2, [r3, #0]
 8002518:	f422 3280 	bic.w	r2, r2, #65536	; 0x10000
 800251c:	601a      	str	r2, [r3, #0]
 800251e:	681a      	ldr	r2, [r3, #0]
 8002520:	f422 2280 	bic.w	r2, r2, #262144	; 0x40000
 8002524:	601a      	str	r2, [r3, #0]
 8002526:	e7e1      	b.n	80024ec <HAL_RCC_OscConfig+0xc0>
 8002528:	4b68      	ldr	r3, [pc, #416]	; (80026cc <HAL_RCC_OscConfig+0x2a0>)
 800252a:	681a      	ldr	r2, [r3, #0]
 800252c:	f442 2280 	orr.w	r2, r2, #262144	; 0x40000
 8002530:	601a      	str	r2, [r3, #0]
 8002532:	681a      	ldr	r2, [r3, #0]
 8002534:	f442 3280 	orr.w	r2, r2, #65536	; 0x10000
 8002538:	601a      	str	r2, [r3, #0]
 800253a:	e7d7      	b.n	80024ec <HAL_RCC_OscConfig+0xc0>
        tickstart = HAL_GetTick();
 800253c:	f7ff f998 	bl	8001870 <HAL_GetTick>
 8002540:	4605      	mov	r5, r0
        while (__HAL_RCC_GET_FLAG(RCC_FLAG_HSERDY) != RESET)
 8002542:	4b62      	ldr	r3, [pc, #392]	; (80026cc <HAL_RCC_OscConfig+0x2a0>)
 8002544:	681b      	ldr	r3, [r3, #0]
 8002546:	f413 3f00 	tst.w	r3, #131072	; 0x20000
 800254a:	d0a3      	beq.n	8002494 <HAL_RCC_OscConfig+0x68>
          if ((HAL_GetTick() - tickstart) > HSE_TIMEOUT_VALUE)
 800254c:	f7ff f990 	bl	8001870 <HAL_GetTick>
 8002550:	1b40      	subs	r0, r0, r5
 8002552:	2864      	cmp	r0, #100	; 0x64
 8002554:	d9f5      	bls.n	8002542 <HAL_RCC_OscConfig+0x116>
            return HAL_TIMEOUT;
 8002556:	2003      	movs	r0, #3
 8002558:	e179      	b.n	800284e <HAL_RCC_OscConfig+0x422>
        || ((__HAL_RCC_GET_SYSCLK_SOURCE() == RCC_SYSCLKSOURCE_STATUS_PLLCLK) && ((RCC->PLLCFGR & RCC_PLLCFGR_PLLSRC) == RCC_PLLCFGR_PLLSRC_HSI)))
 800255a:	4b5c      	ldr	r3, [pc, #368]	; (80026cc <HAL_RCC_OscConfig+0x2a0>)
 800255c:	685b      	ldr	r3, [r3, #4]
 800255e:	f413 0f80 	tst.w	r3, #4194304	; 0x400000
 8002562:	d1a6      	bne.n	80024b2 <HAL_RCC_OscConfig+0x86>
      if ((__HAL_RCC_GET_FLAG(RCC_FLAG_HSIRDY) != RESET) && (RCC_OscInitStruct->HSIState != RCC_HSI_ON))
 8002564:	4b59      	ldr	r3, [pc, #356]	; (80026cc <HAL_RCC_OscConfig+0x2a0>)
 8002566:	681b      	ldr	r3, [r3, #0]
 8002568:	f013 0f02 	tst.w	r3, #2
 800256c:	d004      	beq.n	8002578 <HAL_RCC_OscConfig+0x14c>
 800256e:	68e3      	ldr	r3, [r4, #12]
 8002570:	2b01      	cmp	r3, #1
 8002572:	d001      	beq.n	8002578 <HAL_RCC_OscConfig+0x14c>
        return HAL_ERROR;
 8002574:	2001      	movs	r0, #1
 8002576:	e16a      	b.n	800284e <HAL_RCC_OscConfig+0x422>
        __HAL_RCC_HSI_CALIBRATIONVALUE_ADJUST(RCC_OscInitStruct->HSICalibrationValue);
 8002578:	4a54      	ldr	r2, [pc, #336]	; (80026cc <HAL_RCC_OscConfig+0x2a0>)
 800257a:	6813      	ldr	r3, [r2, #0]
 800257c:	f023 03f8 	bic.w	r3, r3, #248	; 0xf8
 8002580:	6921      	ldr	r1, [r4, #16]
 8002582:	ea43 03c1 	orr.w	r3, r3, r1, lsl #3
 8002586:	6013      	str	r3, [r2, #0]
        }
      }
    }
  }
  /*------------------------------ LSI Configuration -------------------------*/
  if (((RCC_OscInitStruct->OscillatorType) & RCC_OSCILLATORTYPE_LSI) == RCC_OSCILLATORTYPE_LSI)
 8002588:	6823      	ldr	r3, [r4, #0]
 800258a:	f013 0f08 	tst.w	r3, #8
 800258e:	d046      	beq.n	800261e <HAL_RCC_OscConfig+0x1f2>
  {
    /* Check the parameters */
    assert_param(IS_RCC_LSI(RCC_OscInitStruct->LSIState));

    /* Check the LSI State */
    if ((RCC_OscInitStruct->LSIState) != RCC_LSI_OFF)
 8002590:	6963      	ldr	r3, [r4, #20]
 8002592:	b383      	cbz	r3, 80025f6 <HAL_RCC_OscConfig+0x1ca>
    {
      /* Enable the Internal Low Speed oscillator (LSI). */
      __HAL_RCC_LSI_ENABLE();
 8002594:	4a4d      	ldr	r2, [pc, #308]	; (80026cc <HAL_RCC_OscConfig+0x2a0>)
 8002596:	6f53      	ldr	r3, [r2, #116]	; 0x74
 8002598:	f043 0301 	orr.w	r3, r3, #1
 800259c:	6753      	str	r3, [r2, #116]	; 0x74

      /* Get Start Tick*/
      tickstart = HAL_GetTick();
 800259e:	f7ff f967 	bl	8001870 <HAL_GetTick>
 80025a2:	4605      	mov	r5, r0

      /* Wait till LSI is ready */
      while (__HAL_RCC_GET_FLAG(RCC_FLAG_LSIRDY) == RESET)
 80025a4:	4b49      	ldr	r3, [pc, #292]	; (80026cc <HAL_RCC_OscConfig+0x2a0>)
 80025a6:	6f5b      	ldr	r3, [r3, #116]	; 0x74
 80025a8:	f013 0f02 	tst.w	r3, #2
 80025ac:	d137      	bne.n	800261e <HAL_RCC_OscConfig+0x1f2>
      {
        if ((HAL_GetTick() - tickstart) > LSI_TIMEOUT_VALUE)
 80025ae:	f7ff f95f 	bl	8001870 <HAL_GetTick>
 80025b2:	1b40      	subs	r0, r0, r5
 80025b4:	2802      	cmp	r0, #2
 80025b6:	d9f5      	bls.n	80025a4 <HAL_RCC_OscConfig+0x178>
        {
          return HAL_TIMEOUT;
 80025b8:	2003      	movs	r0, #3
 80025ba:	e148      	b.n	800284e <HAL_RCC_OscConfig+0x422>
        __HAL_RCC_HSI_CALIBRATIONVALUE_ADJUST(RCC_OscInitStruct->HSICalibrationValue);
 80025bc:	4a43      	ldr	r2, [pc, #268]	; (80026cc <HAL_RCC_OscConfig+0x2a0>)
 80025be:	6813      	ldr	r3, [r2, #0]
 80025c0:	f023 03f8 	bic.w	r3, r3, #248	; 0xf8
 80025c4:	6921      	ldr	r1, [r4, #16]
 80025c6:	ea43 03c1 	orr.w	r3, r3, r1, lsl #3
 80025ca:	6013      	str	r3, [r2, #0]
 80025cc:	e7dc      	b.n	8002588 <HAL_RCC_OscConfig+0x15c>
        __HAL_RCC_HSI_DISABLE();
 80025ce:	4a3f      	ldr	r2, [pc, #252]	; (80026cc <HAL_RCC_OscConfig+0x2a0>)
 80025d0:	6813      	ldr	r3, [r2, #0]
 80025d2:	f023 0301 	bic.w	r3, r3, #1
 80025d6:	6013      	str	r3, [r2, #0]
        tickstart = HAL_GetTick();
 80025d8:	f7ff f94a 	bl	8001870 <HAL_GetTick>
 80025dc:	4605      	mov	r5, r0
        while (__HAL_RCC_GET_FLAG(RCC_FLAG_HSIRDY) != RESET)
 80025de:	4b3b      	ldr	r3, [pc, #236]	; (80026cc <HAL_RCC_OscConfig+0x2a0>)
 80025e0:	681b      	ldr	r3, [r3, #0]
 80025e2:	f013 0f02 	tst.w	r3, #2
 80025e6:	d0cf      	beq.n	8002588 <HAL_RCC_OscConfig+0x15c>
          if ((HAL_GetTick() - tickstart) > HSI_TIMEOUT_VALUE)
 80025e8:	f7ff f942 	bl	8001870 <HAL_GetTick>
 80025ec:	1b40      	subs	r0, r0, r5
 80025ee:	2802      	cmp	r0, #2
 80025f0:	d9f5      	bls.n	80025de <HAL_RCC_OscConfig+0x1b2>
            return HAL_TIMEOUT;
 80025f2:	2003      	movs	r0, #3
 80025f4:	e12b      	b.n	800284e <HAL_RCC_OscConfig+0x422>
      }
    }
    else
    {
      /* Disable the Internal Low Speed oscillator (LSI). */
      __HAL_RCC_LSI_DISABLE();
 80025f6:	4a35      	ldr	r2, [pc, #212]	; (80026cc <HAL_RCC_OscConfig+0x2a0>)
 80025f8:	6f53      	ldr	r3, [r2, #116]	; 0x74
 80025fa:	f023 0301 	bic.w	r3, r3, #1
 80025fe:	6753      	str	r3, [r2, #116]	; 0x74

      /* Get Start Tick*/
      tickstart = HAL_GetTick();
 8002600:	f7ff f936 	bl	8001870 <HAL_GetTick>
 8002604:	4605      	mov	r5, r0

      /* Wait till LSI is ready */
      while (__HAL_RCC_GET_FLAG(RCC_FLAG_LSIRDY) != RESET)
 8002606:	4b31      	ldr	r3, [pc, #196]	; (80026cc <HAL_RCC_OscConfig+0x2a0>)
 8002608:	6f5b      	ldr	r3, [r3, #116]	; 0x74
 800260a:	f013 0f02 	tst.w	r3, #2
 800260e:	d006      	beq.n	800261e <HAL_RCC_OscConfig+0x1f2>
      {
        if ((HAL_GetTick() - tickstart) > LSI_TIMEOUT_VALUE)
 8002610:	f7ff f92e 	bl	8001870 <HAL_GetTick>
 8002614:	1b40      	subs	r0, r0, r5
 8002616:	2802      	cmp	r0, #2
 8002618:	d9f5      	bls.n	8002606 <HAL_RCC_OscConfig+0x1da>
        {
          return HAL_TIMEOUT;
 800261a:	2003      	movs	r0, #3
 800261c:	e117      	b.n	800284e <HAL_RCC_OscConfig+0x422>
        }
      }
    }
  }
  /*------------------------------ LSE Configuration -------------------------*/
  if (((RCC_OscInitStruct->OscillatorType) & RCC_OSCILLATORTYPE_LSE) == RCC_OSCILLATORTYPE_LSE)
 800261e:	6823      	ldr	r3, [r4, #0]
 8002620:	f013 0f04 	tst.w	r3, #4
 8002624:	d07e      	beq.n	8002724 <HAL_RCC_OscConfig+0x2f8>
    /* Check the parameters */
    assert_param(IS_RCC_LSE(RCC_OscInitStruct->LSEState));

    /* Update LSE configuration in Backup Domain control register    */
    /* Requires to enable write access to Backup Domain of necessary */
    if (__HAL_RCC_PWR_IS_CLK_DISABLED())
 8002626:	4b29      	ldr	r3, [pc, #164]	; (80026cc <HAL_RCC_OscConfig+0x2a0>)
 8002628:	6c1b      	ldr	r3, [r3, #64]	; 0x40
 800262a:	f013 5f80 	tst.w	r3, #268435456	; 0x10000000
 800262e:	d11e      	bne.n	800266e <HAL_RCC_OscConfig+0x242>
    {
      /* Enable Power Clock*/
      __HAL_RCC_PWR_CLK_ENABLE();
 8002630:	4b26      	ldr	r3, [pc, #152]	; (80026cc <HAL_RCC_OscConfig+0x2a0>)
 8002632:	6c1a      	ldr	r2, [r3, #64]	; 0x40
 8002634:	f042 5280 	orr.w	r2, r2, #268435456	; 0x10000000
 8002638:	641a      	str	r2, [r3, #64]	; 0x40
 800263a:	6c1b      	ldr	r3, [r3, #64]	; 0x40
 800263c:	f003 5380 	and.w	r3, r3, #268435456	; 0x10000000
 8002640:	9301      	str	r3, [sp, #4]
 8002642:	9b01      	ldr	r3, [sp, #4]
      pwrclkchanged = SET;
 8002644:	2501      	movs	r5, #1
    }

    if (HAL_IS_BIT_CLR(PWR->CR1, PWR_CR1_DBP))
 8002646:	4b22      	ldr	r3, [pc, #136]	; (80026d0 <HAL_RCC_OscConfig+0x2a4>)
 8002648:	681b      	ldr	r3, [r3, #0]
 800264a:	f413 7f80 	tst.w	r3, #256	; 0x100
 800264e:	d010      	beq.n	8002672 <HAL_RCC_OscConfig+0x246>
        }
      }
    }

    /* Set the new LSE configuration -----------------------------------------*/
    __HAL_RCC_LSE_CONFIG(RCC_OscInitStruct->LSEState);
 8002650:	68a3      	ldr	r3, [r4, #8]
 8002652:	2b01      	cmp	r3, #1
 8002654:	d021      	beq.n	800269a <HAL_RCC_OscConfig+0x26e>
 8002656:	2b00      	cmp	r3, #0
 8002658:	d13c      	bne.n	80026d4 <HAL_RCC_OscConfig+0x2a8>
 800265a:	4b1c      	ldr	r3, [pc, #112]	; (80026cc <HAL_RCC_OscConfig+0x2a0>)
 800265c:	6f1a      	ldr	r2, [r3, #112]	; 0x70
 800265e:	f022 0201 	bic.w	r2, r2, #1
 8002662:	671a      	str	r2, [r3, #112]	; 0x70
 8002664:	6f1a      	ldr	r2, [r3, #112]	; 0x70
 8002666:	f022 0204 	bic.w	r2, r2, #4
 800266a:	671a      	str	r2, [r3, #112]	; 0x70
 800266c:	e01a      	b.n	80026a4 <HAL_RCC_OscConfig+0x278>
  FlagStatus pwrclkchanged = RESET;
 800266e:	2500      	movs	r5, #0
 8002670:	e7e9      	b.n	8002646 <HAL_RCC_OscConfig+0x21a>
      PWR->CR1 |= PWR_CR1_DBP;
 8002672:	4a17      	ldr	r2, [pc, #92]	; (80026d0 <HAL_RCC_OscConfig+0x2a4>)
 8002674:	6813      	ldr	r3, [r2, #0]
 8002676:	f443 7380 	orr.w	r3, r3, #256	; 0x100
 800267a:	6013      	str	r3, [r2, #0]
      tickstart = HAL_GetTick();
 800267c:	f7ff f8f8 	bl	8001870 <HAL_GetTick>
 8002680:	4606      	mov	r6, r0
      while (HAL_IS_BIT_CLR(PWR->CR1, PWR_CR1_DBP))
 8002682:	4b13      	ldr	r3, [pc, #76]	; (80026d0 <HAL_RCC_OscConfig+0x2a4>)
 8002684:	681b      	ldr	r3, [r3, #0]
 8002686:	f413 7f80 	tst.w	r3, #256	; 0x100
 800268a:	d1e1      	bne.n	8002650 <HAL_RCC_OscConfig+0x224>
        if ((HAL_GetTick() - tickstart) > RCC_DBP_TIMEOUT_VALUE)
 800268c:	f7ff f8f0 	bl	8001870 <HAL_GetTick>
 8002690:	1b80      	subs	r0, r0, r6
 8002692:	2864      	cmp	r0, #100	; 0x64
 8002694:	d9f5      	bls.n	8002682 <HAL_RCC_OscConfig+0x256>
          return HAL_TIMEOUT;
 8002696:	2003      	movs	r0, #3
 8002698:	e0d9      	b.n	800284e <HAL_RCC_OscConfig+0x422>
    __HAL_RCC_LSE_CONFIG(RCC_OscInitStruct->LSEState);
 800269a:	4a0c      	ldr	r2, [pc, #48]	; (80026cc <HAL_RCC_OscConfig+0x2a0>)
 800269c:	6f13      	ldr	r3, [r2, #112]	; 0x70
 800269e:	f043 0301 	orr.w	r3, r3, #1
 80026a2:	6713      	str	r3, [r2, #112]	; 0x70
    /* Check the LSE State */
    if ((RCC_OscInitStruct->LSEState) != RCC_LSE_OFF)
 80026a4:	68a3      	ldr	r3, [r4, #8]
 80026a6:	b35b      	cbz	r3, 8002700 <HAL_RCC_OscConfig+0x2d4>
    {
      /* Get Start Tick*/
      tickstart = HAL_GetTick();
 80026a8:	f7ff f8e2 	bl	8001870 <HAL_GetTick>
 80026ac:	4606      	mov	r6, r0

      /* Wait till LSE is ready */
      while (__HAL_RCC_GET_FLAG(RCC_FLAG_LSERDY) == RESET)
 80026ae:	4b07      	ldr	r3, [pc, #28]	; (80026cc <HAL_RCC_OscConfig+0x2a0>)
 80026b0:	6f1b      	ldr	r3, [r3, #112]	; 0x70
 80026b2:	f013 0f02 	tst.w	r3, #2
 80026b6:	d134      	bne.n	8002722 <HAL_RCC_OscConfig+0x2f6>
      {
        if ((HAL_GetTick() - tickstart) > RCC_LSE_TIMEOUT_VALUE)
 80026b8:	f7ff f8da 	bl	8001870 <HAL_GetTick>
 80026bc:	1b80      	subs	r0, r0, r6
 80026be:	f241 3388 	movw	r3, #5000	; 0x1388
 80026c2:	4298      	cmp	r0, r3
 80026c4:	d9f3      	bls.n	80026ae <HAL_RCC_OscConfig+0x282>
        {
          return HAL_TIMEOUT;
 80026c6:	2003      	movs	r0, #3
 80026c8:	e0c1      	b.n	800284e <HAL_RCC_OscConfig+0x422>
 80026ca:	bf00      	nop
 80026cc:	40023800 	.word	0x40023800
 80026d0:	40007000 	.word	0x40007000
    __HAL_RCC_LSE_CONFIG(RCC_OscInitStruct->LSEState);
 80026d4:	2b05      	cmp	r3, #5
 80026d6:	d009      	beq.n	80026ec <HAL_RCC_OscConfig+0x2c0>
 80026d8:	4b60      	ldr	r3, [pc, #384]	; (800285c <HAL_RCC_OscConfig+0x430>)
 80026da:	6f1a      	ldr	r2, [r3, #112]	; 0x70
 80026dc:	f022 0201 	bic.w	r2, r2, #1
 80026e0:	671a      	str	r2, [r3, #112]	; 0x70
 80026e2:	6f1a      	ldr	r2, [r3, #112]	; 0x70
 80026e4:	f022 0204 	bic.w	r2, r2, #4
 80026e8:	671a      	str	r2, [r3, #112]	; 0x70
 80026ea:	e7db      	b.n	80026a4 <HAL_RCC_OscConfig+0x278>
 80026ec:	4b5b      	ldr	r3, [pc, #364]	; (800285c <HAL_RCC_OscConfig+0x430>)
 80026ee:	6f1a      	ldr	r2, [r3, #112]	; 0x70
 80026f0:	f042 0204 	orr.w	r2, r2, #4
 80026f4:	671a      	str	r2, [r3, #112]	; 0x70
 80026f6:	6f1a      	ldr	r2, [r3, #112]	; 0x70
 80026f8:	f042 0201 	orr.w	r2, r2, #1
 80026fc:	671a      	str	r2, [r3, #112]	; 0x70
 80026fe:	e7d1      	b.n	80026a4 <HAL_RCC_OscConfig+0x278>
      }
    }
    else
    {
      /* Get Start Tick*/
      tickstart = HAL_GetTick();
 8002700:	f7ff f8b6 	bl	8001870 <HAL_GetTick>
 8002704:	4606      	mov	r6, r0

      /* Wait till LSE is ready */
      while (__HAL_RCC_GET_FLAG(RCC_FLAG_LSERDY) != RESET)
 8002706:	4b55      	ldr	r3, [pc, #340]	; (800285c <HAL_RCC_OscConfig+0x430>)
 8002708:	6f1b      	ldr	r3, [r3, #112]	; 0x70
 800270a:	f013 0f02 	tst.w	r3, #2
 800270e:	d008      	beq.n	8002722 <HAL_RCC_OscConfig+0x2f6>
      {
        if ((HAL_GetTick() - tickstart) > RCC_LSE_TIMEOUT_VALUE)
 8002710:	f7ff f8ae 	bl	8001870 <HAL_GetTick>
 8002714:	1b80      	subs	r0, r0, r6
 8002716:	f241 3388 	movw	r3, #5000	; 0x1388
 800271a:	4298      	cmp	r0, r3
 800271c:	d9f3      	bls.n	8002706 <HAL_RCC_OscConfig+0x2da>
        {
          return HAL_TIMEOUT;
 800271e:	2003      	movs	r0, #3
 8002720:	e095      	b.n	800284e <HAL_RCC_OscConfig+0x422>
        }
      }
    }

    /* Restore clock configuration if changed */
    if (pwrclkchanged == SET)
 8002722:	b9fd      	cbnz	r5, 8002764 <HAL_RCC_OscConfig+0x338>
    }
  }
  /*-------------------------------- PLL Configuration -----------------------*/
  /* Check the parameters */
  assert_param(IS_RCC_PLL(RCC_OscInitStruct->PLL.PLLState));
  if ((RCC_OscInitStruct->PLL.PLLState) != RCC_PLL_NONE)
 8002724:	69a3      	ldr	r3, [r4, #24]
 8002726:	2b00      	cmp	r3, #0
 8002728:	f000 8090 	beq.w	800284c <HAL_RCC_OscConfig+0x420>
  {
    /* Check if the PLL is used as system clock or not */
    if (__HAL_RCC_GET_SYSCLK_SOURCE() != RCC_SYSCLKSOURCE_STATUS_PLLCLK)
 800272c:	4a4b      	ldr	r2, [pc, #300]	; (800285c <HAL_RCC_OscConfig+0x430>)
 800272e:	6892      	ldr	r2, [r2, #8]
 8002730:	f002 020c 	and.w	r2, r2, #12
 8002734:	2a08      	cmp	r2, #8
 8002736:	d058      	beq.n	80027ea <HAL_RCC_OscConfig+0x3be>
    {
      if ((RCC_OscInitStruct->PLL.PLLState) == RCC_PLL_ON)
 8002738:	2b02      	cmp	r3, #2
 800273a:	d019      	beq.n	8002770 <HAL_RCC_OscConfig+0x344>
        }
      }
      else
      {
        /* Disable the main PLL. */
        __HAL_RCC_PLL_DISABLE();
 800273c:	4a47      	ldr	r2, [pc, #284]	; (800285c <HAL_RCC_OscConfig+0x430>)
 800273e:	6813      	ldr	r3, [r2, #0]
 8002740:	f023 7380 	bic.w	r3, r3, #16777216	; 0x1000000
 8002744:	6013      	str	r3, [r2, #0]

        /* Get Start Tick*/
        tickstart = HAL_GetTick();
 8002746:	f7ff f893 	bl	8001870 <HAL_GetTick>
 800274a:	4604      	mov	r4, r0

        /* Wait till PLL is ready */
        while (__HAL_RCC_GET_FLAG(RCC_FLAG_PLLRDY) != RESET)
 800274c:	4b43      	ldr	r3, [pc, #268]	; (800285c <HAL_RCC_OscConfig+0x430>)
 800274e:	681b      	ldr	r3, [r3, #0]
 8002750:	f013 7f00 	tst.w	r3, #33554432	; 0x2000000
 8002754:	d047      	beq.n	80027e6 <HAL_RCC_OscConfig+0x3ba>
        {
          if ((HAL_GetTick() - tickstart) > PLL_TIMEOUT_VALUE)
 8002756:	f7ff f88b 	bl	8001870 <HAL_GetTick>
 800275a:	1b00      	subs	r0, r0, r4
 800275c:	2802      	cmp	r0, #2
 800275e:	d9f5      	bls.n	800274c <HAL_RCC_OscConfig+0x320>
          {
            return HAL_TIMEOUT;
 8002760:	2003      	movs	r0, #3
 8002762:	e074      	b.n	800284e <HAL_RCC_OscConfig+0x422>
      __HAL_RCC_PWR_CLK_DISABLE();
 8002764:	4a3d      	ldr	r2, [pc, #244]	; (800285c <HAL_RCC_OscConfig+0x430>)
 8002766:	6c13      	ldr	r3, [r2, #64]	; 0x40
 8002768:	f023 5380 	bic.w	r3, r3, #268435456	; 0x10000000
 800276c:	6413      	str	r3, [r2, #64]	; 0x40
 800276e:	e7d9      	b.n	8002724 <HAL_RCC_OscConfig+0x2f8>
        __HAL_RCC_PLL_DISABLE();
 8002770:	4a3a      	ldr	r2, [pc, #232]	; (800285c <HAL_RCC_OscConfig+0x430>)
 8002772:	6813      	ldr	r3, [r2, #0]
 8002774:	f023 7380 	bic.w	r3, r3, #16777216	; 0x1000000
 8002778:	6013      	str	r3, [r2, #0]
        tickstart = HAL_GetTick();
 800277a:	f7ff f879 	bl	8001870 <HAL_GetTick>
 800277e:	4605      	mov	r5, r0
        while (__HAL_RCC_GET_FLAG(RCC_FLAG_PLLRDY) != RESET)
 8002780:	4b36      	ldr	r3, [pc, #216]	; (800285c <HAL_RCC_OscConfig+0x430>)
 8002782:	681b      	ldr	r3, [r3, #0]
 8002784:	f013 7f00 	tst.w	r3, #33554432	; 0x2000000
 8002788:	d006      	beq.n	8002798 <HAL_RCC_OscConfig+0x36c>
          if ((HAL_GetTick() - tickstart) > PLL_TIMEOUT_VALUE)
 800278a:	f7ff f871 	bl	8001870 <HAL_GetTick>
 800278e:	1b40      	subs	r0, r0, r5
 8002790:	2802      	cmp	r0, #2
 8002792:	d9f5      	bls.n	8002780 <HAL_RCC_OscConfig+0x354>
            return HAL_TIMEOUT;
 8002794:	2003      	movs	r0, #3
 8002796:	e05a      	b.n	800284e <HAL_RCC_OscConfig+0x422>
        __HAL_RCC_PLL_CONFIG(RCC_OscInitStruct->PLL.PLLSource,
 8002798:	69e3      	ldr	r3, [r4, #28]
 800279a:	6a22      	ldr	r2, [r4, #32]
 800279c:	4313      	orrs	r3, r2
 800279e:	6a62      	ldr	r2, [r4, #36]	; 0x24
 80027a0:	ea43 1382 	orr.w	r3, r3, r2, lsl #6
 80027a4:	6aa2      	ldr	r2, [r4, #40]	; 0x28
 80027a6:	0852      	lsrs	r2, r2, #1
 80027a8:	3a01      	subs	r2, #1
 80027aa:	ea43 4302 	orr.w	r3, r3, r2, lsl #16
 80027ae:	6ae2      	ldr	r2, [r4, #44]	; 0x2c
 80027b0:	ea43 6302 	orr.w	r3, r3, r2, lsl #24
 80027b4:	f043 5300 	orr.w	r3, r3, #536870912	; 0x20000000
 80027b8:	4a28      	ldr	r2, [pc, #160]	; (800285c <HAL_RCC_OscConfig+0x430>)
 80027ba:	6053      	str	r3, [r2, #4]
        __HAL_RCC_PLL_ENABLE();
 80027bc:	6813      	ldr	r3, [r2, #0]
 80027be:	f043 7380 	orr.w	r3, r3, #16777216	; 0x1000000
 80027c2:	6013      	str	r3, [r2, #0]
        tickstart = HAL_GetTick();
 80027c4:	f7ff f854 	bl	8001870 <HAL_GetTick>
 80027c8:	4604      	mov	r4, r0
        while (__HAL_RCC_GET_FLAG(RCC_FLAG_PLLRDY) == RESET)
 80027ca:	4b24      	ldr	r3, [pc, #144]	; (800285c <HAL_RCC_OscConfig+0x430>)
 80027cc:	681b      	ldr	r3, [r3, #0]
 80027ce:	f013 7f00 	tst.w	r3, #33554432	; 0x2000000
 80027d2:	d106      	bne.n	80027e2 <HAL_RCC_OscConfig+0x3b6>
          if ((HAL_GetTick() - tickstart) > PLL_TIMEOUT_VALUE)
 80027d4:	f7ff f84c 	bl	8001870 <HAL_GetTick>
 80027d8:	1b00      	subs	r0, r0, r4
 80027da:	2802      	cmp	r0, #2
 80027dc:	d9f5      	bls.n	80027ca <HAL_RCC_OscConfig+0x39e>
            return HAL_TIMEOUT;
 80027de:	2003      	movs	r0, #3
 80027e0:	e035      	b.n	800284e <HAL_RCC_OscConfig+0x422>
      {
        return HAL_ERROR;
      }
    }
  }
  return HAL_OK;
 80027e2:	2000      	movs	r0, #0
 80027e4:	e033      	b.n	800284e <HAL_RCC_OscConfig+0x422>
 80027e6:	2000      	movs	r0, #0
 80027e8:	e031      	b.n	800284e <HAL_RCC_OscConfig+0x422>
      pll_config = RCC->PLLCFGR;
 80027ea:	4a1c      	ldr	r2, [pc, #112]	; (800285c <HAL_RCC_OscConfig+0x430>)
 80027ec:	6852      	ldr	r2, [r2, #4]
      if (((RCC_OscInitStruct->PLL.PLLState) == RCC_PLL_OFF) ||
 80027ee:	2b01      	cmp	r3, #1
 80027f0:	d02f      	beq.n	8002852 <HAL_RCC_OscConfig+0x426>
          (READ_BIT(pll_config, RCC_PLLCFGR_PLLSRC) != RCC_OscInitStruct->PLL.PLLSource) ||
 80027f2:	f402 0380 	and.w	r3, r2, #4194304	; 0x400000
 80027f6:	69e1      	ldr	r1, [r4, #28]
      if (((RCC_OscInitStruct->PLL.PLLState) == RCC_PLL_OFF) ||
 80027f8:	428b      	cmp	r3, r1
 80027fa:	d001      	beq.n	8002800 <HAL_RCC_OscConfig+0x3d4>
        return HAL_ERROR;
 80027fc:	2001      	movs	r0, #1
 80027fe:	e026      	b.n	800284e <HAL_RCC_OscConfig+0x422>
          (READ_BIT(pll_config, RCC_PLLCFGR_PLLM) != RCC_OscInitStruct->PLL.PLLM) ||
 8002800:	f002 033f 	and.w	r3, r2, #63	; 0x3f
 8002804:	6a21      	ldr	r1, [r4, #32]
          (READ_BIT(pll_config, RCC_PLLCFGR_PLLSRC) != RCC_OscInitStruct->PLL.PLLSource) ||
 8002806:	428b      	cmp	r3, r1
 8002808:	d001      	beq.n	800280e <HAL_RCC_OscConfig+0x3e2>
        return HAL_ERROR;
 800280a:	2001      	movs	r0, #1
 800280c:	e01f      	b.n	800284e <HAL_RCC_OscConfig+0x422>
          (READ_BIT(pll_config, RCC_PLLCFGR_PLLN) != (RCC_OscInitStruct->PLL.PLLN << RCC_PLLCFGR_PLLN_Pos)) ||
 800280e:	6a61      	ldr	r1, [r4, #36]	; 0x24
          (READ_BIT(pll_config, RCC_PLLCFGR_PLLM) != RCC_OscInitStruct->PLL.PLLM) ||
 8002810:	f647 73c0 	movw	r3, #32704	; 0x7fc0
 8002814:	4013      	ands	r3, r2
 8002816:	ebb3 1f81 	cmp.w	r3, r1, lsl #6
 800281a:	d001      	beq.n	8002820 <HAL_RCC_OscConfig+0x3f4>
        return HAL_ERROR;
 800281c:	2001      	movs	r0, #1
 800281e:	e016      	b.n	800284e <HAL_RCC_OscConfig+0x422>
          (READ_BIT(pll_config, RCC_PLLCFGR_PLLP) != ((((RCC_OscInitStruct->PLL.PLLP) >> 1U) - 1U) << RCC_PLLCFGR_PLLP_Pos)) ||
 8002820:	f402 3140 	and.w	r1, r2, #196608	; 0x30000
 8002824:	6aa3      	ldr	r3, [r4, #40]	; 0x28
 8002826:	085b      	lsrs	r3, r3, #1
 8002828:	3b01      	subs	r3, #1
          (READ_BIT(pll_config, RCC_PLLCFGR_PLLN) != (RCC_OscInitStruct->PLL.PLLN << RCC_PLLCFGR_PLLN_Pos)) ||
 800282a:	ebb1 4f03 	cmp.w	r1, r3, lsl #16
 800282e:	d001      	beq.n	8002834 <HAL_RCC_OscConfig+0x408>
        return HAL_ERROR;
 8002830:	2001      	movs	r0, #1
 8002832:	e00c      	b.n	800284e <HAL_RCC_OscConfig+0x422>
          (READ_BIT(pll_config, RCC_PLLCFGR_PLLQ) != (RCC_OscInitStruct->PLL.PLLQ << RCC_PLLCFGR_PLLQ_Pos)))
 8002834:	f002 6270 	and.w	r2, r2, #251658240	; 0xf000000
 8002838:	6ae3      	ldr	r3, [r4, #44]	; 0x2c
          (READ_BIT(pll_config, RCC_PLLCFGR_PLLP) != ((((RCC_OscInitStruct->PLL.PLLP) >> 1U) - 1U) << RCC_PLLCFGR_PLLP_Pos)) ||
 800283a:	ebb2 6f03 	cmp.w	r2, r3, lsl #24
 800283e:	d00a      	beq.n	8002856 <HAL_RCC_OscConfig+0x42a>
        return HAL_ERROR;
 8002840:	2001      	movs	r0, #1
 8002842:	e004      	b.n	800284e <HAL_RCC_OscConfig+0x422>
    return HAL_ERROR;
 8002844:	2001      	movs	r0, #1
}
 8002846:	4770      	bx	lr
        return HAL_ERROR;
 8002848:	2001      	movs	r0, #1
 800284a:	e000      	b.n	800284e <HAL_RCC_OscConfig+0x422>
  return HAL_OK;
 800284c:	2000      	movs	r0, #0
}
 800284e:	b002      	add	sp, #8
 8002850:	bd70      	pop	{r4, r5, r6, pc}
        return HAL_ERROR;
 8002852:	2001      	movs	r0, #1
 8002854:	e7fb      	b.n	800284e <HAL_RCC_OscConfig+0x422>
  return HAL_OK;
 8002856:	2000      	movs	r0, #0
 8002858:	e7f9      	b.n	800284e <HAL_RCC_OscConfig+0x422>
 800285a:	bf00      	nop
 800285c:	40023800 	.word	0x40023800

08002860 <HAL_RCC_GetSysClockFreq>:
{
  uint32_t pllm = 0, pllvco = 0, pllp = 0;
  uint32_t sysclockfreq = 0;

  /* Get SYSCLK source -------------------------------------------------------*/
  switch (RCC->CFGR & RCC_CFGR_SWS)
 8002860:	4b26      	ldr	r3, [pc, #152]	; (80028fc <HAL_RCC_GetSysClockFreq+0x9c>)
 8002862:	689b      	ldr	r3, [r3, #8]
 8002864:	f003 030c 	and.w	r3, r3, #12
 8002868:	2b04      	cmp	r3, #4
 800286a:	d044      	beq.n	80028f6 <HAL_RCC_GetSysClockFreq+0x96>
 800286c:	2b08      	cmp	r3, #8
 800286e:	d001      	beq.n	8002874 <HAL_RCC_GetSysClockFreq+0x14>
  {
    case RCC_SYSCLKSOURCE_STATUS_HSI:  /* HSI used as system clock source */
    {
      sysclockfreq = HSI_VALUE;
 8002870:	4823      	ldr	r0, [pc, #140]	; (8002900 <HAL_RCC_GetSysClockFreq+0xa0>)
 8002872:	4770      	bx	lr
{
 8002874:	e92d 4bf0 	stmdb	sp!, {r4, r5, r6, r7, r8, r9, fp, lr}
    }
    case RCC_SYSCLKSOURCE_STATUS_PLLCLK:  /* PLL used as system clock  source */
    {
      /* PLL_VCO = (HSE_VALUE or HSI_VALUE / PLLM) * PLLN
      SYSCLK = PLL_VCO / PLLP */
      pllm = RCC->PLLCFGR & RCC_PLLCFGR_PLLM;
 8002878:	4b20      	ldr	r3, [pc, #128]	; (80028fc <HAL_RCC_GetSysClockFreq+0x9c>)
 800287a:	685a      	ldr	r2, [r3, #4]
 800287c:	f002 023f 	and.w	r2, r2, #63	; 0x3f
      if (__HAL_RCC_GET_PLL_OSCSOURCE() != RCC_PLLCFGR_PLLSRC_HSI)
 8002880:	685b      	ldr	r3, [r3, #4]
 8002882:	f413 0f80 	tst.w	r3, #4194304	; 0x400000
 8002886:	d013      	beq.n	80028b0 <HAL_RCC_GetSysClockFreq+0x50>
      {
        /* HSE used as PLL clock source */
        pllvco = (uint32_t)((((uint64_t) HSE_VALUE * ((uint64_t)((RCC->PLLCFGR & RCC_PLLCFGR_PLLN) >> RCC_PLLCFGR_PLLN_Pos)))) / (uint64_t)pllm);
 8002888:	4b1c      	ldr	r3, [pc, #112]	; (80028fc <HAL_RCC_GetSysClockFreq+0x9c>)
 800288a:	6859      	ldr	r1, [r3, #4]
 800288c:	f3c1 1188 	ubfx	r1, r1, #6, #9
 8002890:	2300      	movs	r3, #0
 8002892:	481c      	ldr	r0, [pc, #112]	; (8002904 <HAL_RCC_GetSysClockFreq+0xa4>)
 8002894:	fba1 0100 	umull	r0, r1, r1, r0
 8002898:	f7fd fcb6 	bl	8000208 <__aeabi_uldivmod>
      else
      {
        /* HSI used as PLL clock source */
        pllvco = (uint32_t)((((uint64_t) HSI_VALUE * ((uint64_t)((RCC->PLLCFGR & RCC_PLLCFGR_PLLN) >> RCC_PLLCFGR_PLLN_Pos)))) / (uint64_t)pllm);
      }
      pllp = ((((RCC->PLLCFGR & RCC_PLLCFGR_PLLP) >> RCC_PLLCFGR_PLLP_Pos) + 1) * 2);
 800289c:	4b17      	ldr	r3, [pc, #92]	; (80028fc <HAL_RCC_GetSysClockFreq+0x9c>)
 800289e:	685b      	ldr	r3, [r3, #4]
 80028a0:	f3c3 4301 	ubfx	r3, r3, #16, #2
 80028a4:	3301      	adds	r3, #1
 80028a6:	005b      	lsls	r3, r3, #1

      sysclockfreq = pllvco / pllp;
 80028a8:	fbb0 f0f3 	udiv	r0, r0, r3
      sysclockfreq = HSI_VALUE;
      break;
    }
  }
  return sysclockfreq;
}
 80028ac:	e8bd 8bf0 	ldmia.w	sp!, {r4, r5, r6, r7, r8, r9, fp, pc}
        pllvco = (uint32_t)((((uint64_t) HSI_VALUE * ((uint64_t)((RCC->PLLCFGR & RCC_PLLCFGR_PLLN) >> RCC_PLLCFGR_PLLN_Pos)))) / (uint64_t)pllm);
 80028b0:	4b12      	ldr	r3, [pc, #72]	; (80028fc <HAL_RCC_GetSysClockFreq+0x9c>)
 80028b2:	685b      	ldr	r3, [r3, #4]
 80028b4:	f3c3 1388 	ubfx	r3, r3, #6, #9
 80028b8:	461e      	mov	r6, r3
 80028ba:	2700      	movs	r7, #0
 80028bc:	015c      	lsls	r4, r3, #5
 80028be:	2500      	movs	r5, #0
 80028c0:	1ae4      	subs	r4, r4, r3
 80028c2:	eb65 0507 	sbc.w	r5, r5, r7
 80028c6:	01a9      	lsls	r1, r5, #6
 80028c8:	ea41 6194 	orr.w	r1, r1, r4, lsr #26
 80028cc:	01a0      	lsls	r0, r4, #6
 80028ce:	1b00      	subs	r0, r0, r4
 80028d0:	eb61 0105 	sbc.w	r1, r1, r5
 80028d4:	00cb      	lsls	r3, r1, #3
 80028d6:	ea43 7350 	orr.w	r3, r3, r0, lsr #29
 80028da:	00c4      	lsls	r4, r0, #3
 80028dc:	19a0      	adds	r0, r4, r6
 80028de:	eb43 0107 	adc.w	r1, r3, r7
 80028e2:	028b      	lsls	r3, r1, #10
 80028e4:	ea43 5390 	orr.w	r3, r3, r0, lsr #22
 80028e8:	0284      	lsls	r4, r0, #10
 80028ea:	4620      	mov	r0, r4
 80028ec:	4619      	mov	r1, r3
 80028ee:	2300      	movs	r3, #0
 80028f0:	f7fd fc8a 	bl	8000208 <__aeabi_uldivmod>
 80028f4:	e7d2      	b.n	800289c <HAL_RCC_GetSysClockFreq+0x3c>
      sysclockfreq = HSE_VALUE;
 80028f6:	4803      	ldr	r0, [pc, #12]	; (8002904 <HAL_RCC_GetSysClockFreq+0xa4>)
}
 80028f8:	4770      	bx	lr
 80028fa:	bf00      	nop
 80028fc:	40023800 	.word	0x40023800
 8002900:	00f42400 	.word	0x00f42400
 8002904:	017d7840 	.word	0x017d7840

08002908 <HAL_RCC_ClockConfig>:
  if (RCC_ClkInitStruct == NULL)
 8002908:	2800      	cmp	r0, #0
 800290a:	f000 80a3 	beq.w	8002a54 <HAL_RCC_ClockConfig+0x14c>
{
 800290e:	b570      	push	{r4, r5, r6, lr}
 8002910:	4604      	mov	r4, r0
  if (FLatency > __HAL_FLASH_GET_LATENCY())
 8002912:	4b52      	ldr	r3, [pc, #328]	; (8002a5c <HAL_RCC_ClockConfig+0x154>)
 8002914:	681b      	ldr	r3, [r3, #0]
 8002916:	f003 030f 	and.w	r3, r3, #15
 800291a:	428b      	cmp	r3, r1
 800291c:	d20c      	bcs.n	8002938 <HAL_RCC_ClockConfig+0x30>
    __HAL_FLASH_SET_LATENCY(FLatency);
 800291e:	4a4f      	ldr	r2, [pc, #316]	; (8002a5c <HAL_RCC_ClockConfig+0x154>)
 8002920:	6813      	ldr	r3, [r2, #0]
 8002922:	f023 030f 	bic.w	r3, r3, #15
 8002926:	430b      	orrs	r3, r1
 8002928:	6013      	str	r3, [r2, #0]
    if (__HAL_FLASH_GET_LATENCY() != FLatency)
 800292a:	6813      	ldr	r3, [r2, #0]
 800292c:	f003 030f 	and.w	r3, r3, #15
 8002930:	428b      	cmp	r3, r1
 8002932:	d001      	beq.n	8002938 <HAL_RCC_ClockConfig+0x30>
      return HAL_ERROR;
 8002934:	2001      	movs	r0, #1
}
 8002936:	bd70      	pop	{r4, r5, r6, pc}
  if (((RCC_ClkInitStruct->ClockType) & RCC_CLOCKTYPE_HCLK) == RCC_CLOCKTYPE_HCLK)
 8002938:	6823      	ldr	r3, [r4, #0]
 800293a:	f013 0f02 	tst.w	r3, #2
 800293e:	d017      	beq.n	8002970 <HAL_RCC_ClockConfig+0x68>
    if (((RCC_ClkInitStruct->ClockType) & RCC_CLOCKTYPE_PCLK1) == RCC_CLOCKTYPE_PCLK1)
 8002940:	f013 0f04 	tst.w	r3, #4
 8002944:	d004      	beq.n	8002950 <HAL_RCC_ClockConfig+0x48>
      MODIFY_REG(RCC->CFGR, RCC_CFGR_PPRE1, RCC_HCLK_DIV16);
 8002946:	4a46      	ldr	r2, [pc, #280]	; (8002a60 <HAL_RCC_ClockConfig+0x158>)
 8002948:	6893      	ldr	r3, [r2, #8]
 800294a:	f443 53e0 	orr.w	r3, r3, #7168	; 0x1c00
 800294e:	6093      	str	r3, [r2, #8]
    if (((RCC_ClkInitStruct->ClockType) & RCC_CLOCKTYPE_PCLK2) == RCC_CLOCKTYPE_PCLK2)
 8002950:	6823      	ldr	r3, [r4, #0]
 8002952:	f013 0f08 	tst.w	r3, #8
 8002956:	d004      	beq.n	8002962 <HAL_RCC_ClockConfig+0x5a>
      MODIFY_REG(RCC->CFGR, RCC_CFGR_PPRE2, (RCC_HCLK_DIV16 << 3));
 8002958:	4a41      	ldr	r2, [pc, #260]	; (8002a60 <HAL_RCC_ClockConfig+0x158>)
 800295a:	6893      	ldr	r3, [r2, #8]
 800295c:	f443 4360 	orr.w	r3, r3, #57344	; 0xe000
 8002960:	6093      	str	r3, [r2, #8]
    MODIFY_REG(RCC->CFGR, RCC_CFGR_HPRE, RCC_ClkInitStruct->AHBCLKDivider);
 8002962:	4a3f      	ldr	r2, [pc, #252]	; (8002a60 <HAL_RCC_ClockConfig+0x158>)
 8002964:	6893      	ldr	r3, [r2, #8]
 8002966:	f023 03f0 	bic.w	r3, r3, #240	; 0xf0
 800296a:	68a0      	ldr	r0, [r4, #8]
 800296c:	4303      	orrs	r3, r0
 800296e:	6093      	str	r3, [r2, #8]
 8002970:	460d      	mov	r5, r1
  if (((RCC_ClkInitStruct->ClockType) & RCC_CLOCKTYPE_SYSCLK) == RCC_CLOCKTYPE_SYSCLK)
 8002972:	6823      	ldr	r3, [r4, #0]
 8002974:	f013 0f01 	tst.w	r3, #1
 8002978:	d031      	beq.n	80029de <HAL_RCC_ClockConfig+0xd6>
    if (RCC_ClkInitStruct->SYSCLKSource == RCC_SYSCLKSOURCE_HSE)
 800297a:	6863      	ldr	r3, [r4, #4]
 800297c:	2b01      	cmp	r3, #1
 800297e:	d020      	beq.n	80029c2 <HAL_RCC_ClockConfig+0xba>
    else if (RCC_ClkInitStruct->SYSCLKSource == RCC_SYSCLKSOURCE_PLLCLK)
 8002980:	2b02      	cmp	r3, #2
 8002982:	d025      	beq.n	80029d0 <HAL_RCC_ClockConfig+0xc8>
      if (__HAL_RCC_GET_FLAG(RCC_FLAG_HSIRDY) == RESET)
 8002984:	4a36      	ldr	r2, [pc, #216]	; (8002a60 <HAL_RCC_ClockConfig+0x158>)
 8002986:	6812      	ldr	r2, [r2, #0]
 8002988:	f012 0f02 	tst.w	r2, #2
 800298c:	d064      	beq.n	8002a58 <HAL_RCC_ClockConfig+0x150>
    __HAL_RCC_SYSCLK_CONFIG(RCC_ClkInitStruct->SYSCLKSource);
 800298e:	4934      	ldr	r1, [pc, #208]	; (8002a60 <HAL_RCC_ClockConfig+0x158>)
 8002990:	688a      	ldr	r2, [r1, #8]
 8002992:	f022 0203 	bic.w	r2, r2, #3
 8002996:	4313      	orrs	r3, r2
 8002998:	608b      	str	r3, [r1, #8]
    tickstart = HAL_GetTick();
 800299a:	f7fe ff69 	bl	8001870 <HAL_GetTick>
 800299e:	4606      	mov	r6, r0
    while (__HAL_RCC_GET_SYSCLK_SOURCE() != (RCC_ClkInitStruct->SYSCLKSource << RCC_CFGR_SWS_Pos))
 80029a0:	4b2f      	ldr	r3, [pc, #188]	; (8002a60 <HAL_RCC_ClockConfig+0x158>)
 80029a2:	689b      	ldr	r3, [r3, #8]
 80029a4:	f003 030c 	and.w	r3, r3, #12
 80029a8:	6862      	ldr	r2, [r4, #4]
 80029aa:	ebb3 0f82 	cmp.w	r3, r2, lsl #2
 80029ae:	d016      	beq.n	80029de <HAL_RCC_ClockConfig+0xd6>
      if ((HAL_GetTick() - tickstart) > CLOCKSWITCH_TIMEOUT_VALUE)
 80029b0:	f7fe ff5e 	bl	8001870 <HAL_GetTick>
 80029b4:	1b80      	subs	r0, r0, r6
 80029b6:	f241 3388 	movw	r3, #5000	; 0x1388
 80029ba:	4298      	cmp	r0, r3
 80029bc:	d9f0      	bls.n	80029a0 <HAL_RCC_ClockConfig+0x98>
        return HAL_TIMEOUT;
 80029be:	2003      	movs	r0, #3
 80029c0:	e7b9      	b.n	8002936 <HAL_RCC_ClockConfig+0x2e>
      if (__HAL_RCC_GET_FLAG(RCC_FLAG_HSERDY) == RESET)
 80029c2:	4a27      	ldr	r2, [pc, #156]	; (8002a60 <HAL_RCC_ClockConfig+0x158>)
 80029c4:	6812      	ldr	r2, [r2, #0]
 80029c6:	f412 3f00 	tst.w	r2, #131072	; 0x20000
 80029ca:	d1e0      	bne.n	800298e <HAL_RCC_ClockConfig+0x86>
        return HAL_ERROR;
 80029cc:	2001      	movs	r0, #1
 80029ce:	e7b2      	b.n	8002936 <HAL_RCC_ClockConfig+0x2e>
      if (__HAL_RCC_GET_FLAG(RCC_FLAG_PLLRDY) == RESET)
 80029d0:	4a23      	ldr	r2, [pc, #140]	; (8002a60 <HAL_RCC_ClockConfig+0x158>)
 80029d2:	6812      	ldr	r2, [r2, #0]
 80029d4:	f012 7f00 	tst.w	r2, #33554432	; 0x2000000
 80029d8:	d1d9      	bne.n	800298e <HAL_RCC_ClockConfig+0x86>
        return HAL_ERROR;
 80029da:	2001      	movs	r0, #1
 80029dc:	e7ab      	b.n	8002936 <HAL_RCC_ClockConfig+0x2e>
  if (FLatency < __HAL_FLASH_GET_LATENCY())
 80029de:	4b1f      	ldr	r3, [pc, #124]	; (8002a5c <HAL_RCC_ClockConfig+0x154>)
 80029e0:	681b      	ldr	r3, [r3, #0]
 80029e2:	f003 030f 	and.w	r3, r3, #15
 80029e6:	42ab      	cmp	r3, r5
 80029e8:	d90c      	bls.n	8002a04 <HAL_RCC_ClockConfig+0xfc>
    __HAL_FLASH_SET_LATENCY(FLatency);
 80029ea:	4a1c      	ldr	r2, [pc, #112]	; (8002a5c <HAL_RCC_ClockConfig+0x154>)
 80029ec:	6813      	ldr	r3, [r2, #0]
 80029ee:	f023 030f 	bic.w	r3, r3, #15
 80029f2:	432b      	orrs	r3, r5
 80029f4:	6013      	str	r3, [r2, #0]
    if (__HAL_FLASH_GET_LATENCY() != FLatency)
 80029f6:	6813      	ldr	r3, [r2, #0]
 80029f8:	f003 030f 	and.w	r3, r3, #15
 80029fc:	42ab      	cmp	r3, r5
 80029fe:	d001      	beq.n	8002a04 <HAL_RCC_ClockConfig+0xfc>
      return HAL_ERROR;
 8002a00:	2001      	movs	r0, #1
 8002a02:	e798      	b.n	8002936 <HAL_RCC_ClockConfig+0x2e>
  if (((RCC_ClkInitStruct->ClockType) & RCC_CLOCKTYPE_PCLK1) == RCC_CLOCKTYPE_PCLK1)
 8002a04:	6823      	ldr	r3, [r4, #0]
 8002a06:	f013 0f04 	tst.w	r3, #4
 8002a0a:	d006      	beq.n	8002a1a <HAL_RCC_ClockConfig+0x112>
    MODIFY_REG(RCC->CFGR, RCC_CFGR_PPRE1, RCC_ClkInitStruct->APB1CLKDivider);
 8002a0c:	4a14      	ldr	r2, [pc, #80]	; (8002a60 <HAL_RCC_ClockConfig+0x158>)
 8002a0e:	6893      	ldr	r3, [r2, #8]
 8002a10:	f423 53e0 	bic.w	r3, r3, #7168	; 0x1c00
 8002a14:	68e1      	ldr	r1, [r4, #12]
 8002a16:	430b      	orrs	r3, r1
 8002a18:	6093      	str	r3, [r2, #8]
  if (((RCC_ClkInitStruct->ClockType) & RCC_CLOCKTYPE_PCLK2) == RCC_CLOCKTYPE_PCLK2)
 8002a1a:	6823      	ldr	r3, [r4, #0]
 8002a1c:	f013 0f08 	tst.w	r3, #8
 8002a20:	d007      	beq.n	8002a32 <HAL_RCC_ClockConfig+0x12a>
    MODIFY_REG(RCC->CFGR, RCC_CFGR_PPRE2, ((RCC_ClkInitStruct->APB2CLKDivider) << 3));
 8002a22:	4a0f      	ldr	r2, [pc, #60]	; (8002a60 <HAL_RCC_ClockConfig+0x158>)
 8002a24:	6893      	ldr	r3, [r2, #8]
 8002a26:	f423 4360 	bic.w	r3, r3, #57344	; 0xe000
 8002a2a:	6921      	ldr	r1, [r4, #16]
 8002a2c:	ea43 03c1 	orr.w	r3, r3, r1, lsl #3
 8002a30:	6093      	str	r3, [r2, #8]
  SystemCoreClock = HAL_RCC_GetSysClockFreq() >> AHBPrescTable[(RCC->CFGR & RCC_CFGR_HPRE) >> RCC_CFGR_HPRE_Pos];
 8002a32:	f7ff ff15 	bl	8002860 <HAL_RCC_GetSysClockFreq>
 8002a36:	4b0a      	ldr	r3, [pc, #40]	; (8002a60 <HAL_RCC_ClockConfig+0x158>)
 8002a38:	689b      	ldr	r3, [r3, #8]
 8002a3a:	f3c3 1303 	ubfx	r3, r3, #4, #4
 8002a3e:	4a09      	ldr	r2, [pc, #36]	; (8002a64 <HAL_RCC_ClockConfig+0x15c>)
 8002a40:	5cd3      	ldrb	r3, [r2, r3]
 8002a42:	40d8      	lsrs	r0, r3
 8002a44:	4b08      	ldr	r3, [pc, #32]	; (8002a68 <HAL_RCC_ClockConfig+0x160>)
 8002a46:	6018      	str	r0, [r3, #0]
  HAL_InitTick(uwTickPrio);
 8002a48:	4b08      	ldr	r3, [pc, #32]	; (8002a6c <HAL_RCC_ClockConfig+0x164>)
 8002a4a:	6818      	ldr	r0, [r3, #0]
 8002a4c:	f7fe fe5e 	bl	800170c <HAL_InitTick>
  return HAL_OK;
 8002a50:	2000      	movs	r0, #0
 8002a52:	e770      	b.n	8002936 <HAL_RCC_ClockConfig+0x2e>
    return HAL_ERROR;
 8002a54:	2001      	movs	r0, #1
}
 8002a56:	4770      	bx	lr
        return HAL_ERROR;
 8002a58:	2001      	movs	r0, #1
 8002a5a:	e76c      	b.n	8002936 <HAL_RCC_ClockConfig+0x2e>
 8002a5c:	40023c00 	.word	0x40023c00
 8002a60:	40023800 	.word	0x40023800
 8002a64:	08003ac0 	.word	0x08003ac0
 8002a68:	20000000 	.word	0x20000000
 8002a6c:	20000008 	.word	0x20000008

08002a70 <HAL_RCC_GetHCLKFreq>:
  * @retval HCLK frequency
  */
uint32_t HAL_RCC_GetHCLKFreq(void)
{
  return SystemCoreClock;
}
 8002a70:	4b01      	ldr	r3, [pc, #4]	; (8002a78 <HAL_RCC_GetHCLKFreq+0x8>)
 8002a72:	6818      	ldr	r0, [r3, #0]
 8002a74:	4770      	bx	lr
 8002a76:	bf00      	nop
 8002a78:	20000000 	.word	0x20000000

08002a7c <HAL_RCC_GetPCLK1Freq>:
  * @note   Each time PCLK1 changes, this function must be called to update the
  *         right PCLK1 value. Otherwise, any configuration based on this function will be incorrect.
  * @retval PCLK1 frequency
  */
uint32_t HAL_RCC_GetPCLK1Freq(void)
{
 8002a7c:	b508      	push	{r3, lr}
  /* Get HCLK source and Compute PCLK1 frequency ---------------------------*/
  return (HAL_RCC_GetHCLKFreq() >> APBPrescTable[(RCC->CFGR & RCC_CFGR_PPRE1) >> RCC_CFGR_PPRE1_Pos]);
 8002a7e:	f7ff fff7 	bl	8002a70 <HAL_RCC_GetHCLKFreq>
 8002a82:	4b04      	ldr	r3, [pc, #16]	; (8002a94 <HAL_RCC_GetPCLK1Freq+0x18>)
 8002a84:	689b      	ldr	r3, [r3, #8]
 8002a86:	f3c3 2382 	ubfx	r3, r3, #10, #3
 8002a8a:	4a03      	ldr	r2, [pc, #12]	; (8002a98 <HAL_RCC_GetPCLK1Freq+0x1c>)
 8002a8c:	5cd3      	ldrb	r3, [r2, r3]
}
 8002a8e:	40d8      	lsrs	r0, r3
 8002a90:	bd08      	pop	{r3, pc}
 8002a92:	bf00      	nop
 8002a94:	40023800 	.word	0x40023800
 8002a98:	08003ad0 	.word	0x08003ad0

08002a9c <HAL_RCC_GetClockConfig>:
  * @retval None
  */
void HAL_RCC_GetClockConfig(RCC_ClkInitTypeDef  *RCC_ClkInitStruct, uint32_t *pFLatency)
{
  /* Set all possible values for the Clock type parameter --------------------*/
  RCC_ClkInitStruct->ClockType = RCC_CLOCKTYPE_SYSCLK | RCC_CLOCKTYPE_HCLK | RCC_CLOCKTYPE_PCLK1 | RCC_CLOCKTYPE_PCLK2;
 8002a9c:	230f      	movs	r3, #15
 8002a9e:	6003      	str	r3, [r0, #0]

  /* Get the SYSCLK configuration --------------------------------------------*/
  RCC_ClkInitStruct->SYSCLKSource = (uint32_t)(RCC->CFGR & RCC_CFGR_SW);
 8002aa0:	4b0b      	ldr	r3, [pc, #44]	; (8002ad0 <HAL_RCC_GetClockConfig+0x34>)
 8002aa2:	689a      	ldr	r2, [r3, #8]
 8002aa4:	f002 0203 	and.w	r2, r2, #3
 8002aa8:	6042      	str	r2, [r0, #4]

  /* Get the HCLK configuration ----------------------------------------------*/
  RCC_ClkInitStruct->AHBCLKDivider = (uint32_t)(RCC->CFGR & RCC_CFGR_HPRE);
 8002aaa:	689a      	ldr	r2, [r3, #8]
 8002aac:	f002 02f0 	and.w	r2, r2, #240	; 0xf0
 8002ab0:	6082      	str	r2, [r0, #8]

  /* Get the APB1 configuration ----------------------------------------------*/
  RCC_ClkInitStruct->APB1CLKDivider = (uint32_t)(RCC->CFGR & RCC_CFGR_PPRE1);
 8002ab2:	689a      	ldr	r2, [r3, #8]
 8002ab4:	f402 52e0 	and.w	r2, r2, #7168	; 0x1c00
 8002ab8:	60c2      	str	r2, [r0, #12]

  /* Get the APB2 configuration ----------------------------------------------*/
  RCC_ClkInitStruct->APB2CLKDivider = (uint32_t)((RCC->CFGR & RCC_CFGR_PPRE2) >> 3);
 8002aba:	689b      	ldr	r3, [r3, #8]
 8002abc:	08db      	lsrs	r3, r3, #3
 8002abe:	f403 53e0 	and.w	r3, r3, #7168	; 0x1c00
 8002ac2:	6103      	str	r3, [r0, #16]

  /* Get the Flash Wait State (Latency) configuration ------------------------*/
  *pFLatency = (uint32_t)(FLASH->ACR & FLASH_ACR_LATENCY);
 8002ac4:	4b03      	ldr	r3, [pc, #12]	; (8002ad4 <HAL_RCC_GetClockConfig+0x38>)
 8002ac6:	681b      	ldr	r3, [r3, #0]
 8002ac8:	f003 030f 	and.w	r3, r3, #15
 8002acc:	600b      	str	r3, [r1, #0]
}
 8002ace:	4770      	bx	lr
 8002ad0:	40023800 	.word	0x40023800
 8002ad4:	40023c00 	.word	0x40023c00

08002ad8 <HAL_RCCEx_PeriphCLKConfig>:
  *         the backup registers) are set to their reset values.
  *
  * @retval HAL status
  */
HAL_StatusTypeDef HAL_RCCEx_PeriphCLKConfig(RCC_PeriphCLKInitTypeDef  *PeriphClkInit)
{
 8002ad8:	b5f0      	push	{r4, r5, r6, r7, lr}
 8002ada:	b083      	sub	sp, #12
 8002adc:	4604      	mov	r4, r0

  /* Check the parameters */
  assert_param(IS_RCC_PERIPHCLOCK(PeriphClkInit->PeriphClockSelection));

  /*----------------------------------- I2S configuration ----------------------------------*/
  if(((PeriphClkInit->PeriphClockSelection) & RCC_PERIPHCLK_I2S) == (RCC_PERIPHCLK_I2S))
 8002ade:	6803      	ldr	r3, [r0, #0]
 8002ae0:	f013 0f01 	tst.w	r3, #1
 8002ae4:	d00c      	beq.n	8002b00 <HAL_RCCEx_PeriphCLKConfig+0x28>
  {
    /* Check the parameters */
    assert_param(IS_RCC_I2SCLKSOURCE(PeriphClkInit->I2sClockSelection));

    /* Configure I2S Clock source */
    __HAL_RCC_I2S_CONFIG(PeriphClkInit->I2sClockSelection);
 8002ae6:	4bb6      	ldr	r3, [pc, #728]	; (8002dc0 <HAL_RCCEx_PeriphCLKConfig+0x2e8>)
 8002ae8:	689a      	ldr	r2, [r3, #8]
 8002aea:	f422 0200 	bic.w	r2, r2, #8388608	; 0x800000
 8002aee:	609a      	str	r2, [r3, #8]
 8002af0:	689a      	ldr	r2, [r3, #8]
 8002af2:	6b41      	ldr	r1, [r0, #52]	; 0x34
 8002af4:	430a      	orrs	r2, r1
 8002af6:	609a      	str	r2, [r3, #8]

    /* Enable the PLLI2S when it's used as clock source for I2S */
    if(PeriphClkInit->I2sClockSelection == RCC_I2SCLKSOURCE_PLLI2S)
 8002af8:	6b43      	ldr	r3, [r0, #52]	; 0x34
 8002afa:	b1c3      	cbz	r3, 8002b2e <HAL_RCCEx_PeriphCLKConfig+0x56>
  uint32_t plli2sused = 0;
 8002afc:	2600      	movs	r6, #0
 8002afe:	e000      	b.n	8002b02 <HAL_RCCEx_PeriphCLKConfig+0x2a>
 8002b00:	2600      	movs	r6, #0
      plli2sused = 1;
    }
  }

  /*------------------------------------ SAI1 configuration --------------------------------------*/
  if(((PeriphClkInit->PeriphClockSelection) & RCC_PERIPHCLK_SAI1) == (RCC_PERIPHCLK_SAI1))
 8002b02:	6823      	ldr	r3, [r4, #0]
 8002b04:	f413 2f00 	tst.w	r3, #524288	; 0x80000
 8002b08:	d015      	beq.n	8002b36 <HAL_RCCEx_PeriphCLKConfig+0x5e>
  {
    /* Check the parameters */
    assert_param(IS_RCC_SAI1CLKSOURCE(PeriphClkInit->Sai1ClockSelection));

    /* Configure SAI1 Clock source */
    __HAL_RCC_SAI1_CONFIG(PeriphClkInit->Sai1ClockSelection);
 8002b0a:	4aad      	ldr	r2, [pc, #692]	; (8002dc0 <HAL_RCCEx_PeriphCLKConfig+0x2e8>)
 8002b0c:	f8d2 308c 	ldr.w	r3, [r2, #140]	; 0x8c
 8002b10:	f423 1340 	bic.w	r3, r3, #3145728	; 0x300000
 8002b14:	6be1      	ldr	r1, [r4, #60]	; 0x3c
 8002b16:	430b      	orrs	r3, r1
 8002b18:	f8c2 308c 	str.w	r3, [r2, #140]	; 0x8c
    /* Enable the PLLI2S when it's used as clock source for SAI */
    if(PeriphClkInit->Sai1ClockSelection == RCC_SAI1CLKSOURCE_PLLI2S)
 8002b1c:	6be3      	ldr	r3, [r4, #60]	; 0x3c
 8002b1e:	f5b3 1f80 	cmp.w	r3, #1048576	; 0x100000
 8002b22:	d006      	beq.n	8002b32 <HAL_RCCEx_PeriphCLKConfig+0x5a>
    {
      plli2sused = 1;
    }
    /* Enable the PLLSAI when it's used as clock source for SAI */
    if(PeriphClkInit->Sai1ClockSelection == RCC_SAI1CLKSOURCE_PLLSAI)
 8002b24:	2b00      	cmp	r3, #0
 8002b26:	f000 8129 	beq.w	8002d7c <HAL_RCCEx_PeriphCLKConfig+0x2a4>
  uint32_t pllsaiused = 0;
 8002b2a:	2500      	movs	r5, #0
 8002b2c:	e004      	b.n	8002b38 <HAL_RCCEx_PeriphCLKConfig+0x60>
      plli2sused = 1;
 8002b2e:	2601      	movs	r6, #1
 8002b30:	e7e7      	b.n	8002b02 <HAL_RCCEx_PeriphCLKConfig+0x2a>
      plli2sused = 1;
 8002b32:	2601      	movs	r6, #1
 8002b34:	e7f6      	b.n	8002b24 <HAL_RCCEx_PeriphCLKConfig+0x4c>
  uint32_t pllsaiused = 0;
 8002b36:	2500      	movs	r5, #0
      pllsaiused = 1;
    }
  }

  /*------------------------------------ SAI2 configuration --------------------------------------*/
  if(((PeriphClkInit->PeriphClockSelection) & RCC_PERIPHCLK_SAI2) == (RCC_PERIPHCLK_SAI2))
 8002b38:	6823      	ldr	r3, [r4, #0]
 8002b3a:	f413 1f80 	tst.w	r3, #1048576	; 0x100000
 8002b3e:	d00f      	beq.n	8002b60 <HAL_RCCEx_PeriphCLKConfig+0x88>
  {
    /* Check the parameters */
    assert_param(IS_RCC_SAI2CLKSOURCE(PeriphClkInit->Sai2ClockSelection));

    /* Configure SAI2 Clock source */
    __HAL_RCC_SAI2_CONFIG(PeriphClkInit->Sai2ClockSelection);
 8002b40:	4a9f      	ldr	r2, [pc, #636]	; (8002dc0 <HAL_RCCEx_PeriphCLKConfig+0x2e8>)
 8002b42:	f8d2 308c 	ldr.w	r3, [r2, #140]	; 0x8c
 8002b46:	f423 0340 	bic.w	r3, r3, #12582912	; 0xc00000
 8002b4a:	6c21      	ldr	r1, [r4, #64]	; 0x40
 8002b4c:	430b      	orrs	r3, r1
 8002b4e:	f8c2 308c 	str.w	r3, [r2, #140]	; 0x8c

    /* Enable the PLLI2S when it's used as clock source for SAI */
    if(PeriphClkInit->Sai2ClockSelection == RCC_SAI2CLKSOURCE_PLLI2S)
 8002b52:	6c23      	ldr	r3, [r4, #64]	; 0x40
 8002b54:	f5b3 0f80 	cmp.w	r3, #4194304	; 0x400000
 8002b58:	f000 8112 	beq.w	8002d80 <HAL_RCCEx_PeriphCLKConfig+0x2a8>
    {
      plli2sused = 1;
    }
    /* Enable the PLLSAI when it's used as clock source for SAI */
    if(PeriphClkInit->Sai2ClockSelection == RCC_SAI2CLKSOURCE_PLLSAI)
 8002b5c:	b903      	cbnz	r3, 8002b60 <HAL_RCCEx_PeriphCLKConfig+0x88>
    {
      pllsaiused = 1;
 8002b5e:	2501      	movs	r5, #1
    }
  }

  /*-------------------------------------- SPDIF-RX Configuration -----------------------------------*/
  if(((PeriphClkInit->PeriphClockSelection) & RCC_PERIPHCLK_SPDIFRX) == RCC_PERIPHCLK_SPDIFRX)
 8002b60:	6823      	ldr	r3, [r4, #0]
 8002b62:	f013 7f80 	tst.w	r3, #16777216	; 0x1000000
 8002b66:	d000      	beq.n	8002b6a <HAL_RCCEx_PeriphCLKConfig+0x92>
  {
      plli2sused = 1;
 8002b68:	2601      	movs	r6, #1
  }

  /*------------------------------------ RTC configuration --------------------------------------*/
  if(((PeriphClkInit->PeriphClockSelection) & RCC_PERIPHCLK_RTC) == (RCC_PERIPHCLK_RTC))
 8002b6a:	f013 0f20 	tst.w	r3, #32
 8002b6e:	f040 8109 	bne.w	8002d84 <HAL_RCCEx_PeriphCLKConfig+0x2ac>
    }
    __HAL_RCC_RTC_CONFIG(PeriphClkInit->RTCClockSelection);
  }

  /*------------------------------------ TIM configuration --------------------------------------*/
  if(((PeriphClkInit->PeriphClockSelection) & RCC_PERIPHCLK_TIM) == (RCC_PERIPHCLK_TIM))
 8002b72:	6823      	ldr	r3, [r4, #0]
 8002b74:	f013 0f10 	tst.w	r3, #16
 8002b78:	d00c      	beq.n	8002b94 <HAL_RCCEx_PeriphCLKConfig+0xbc>
  {
    /* Check the parameters */
    assert_param(IS_RCC_TIMPRES(PeriphClkInit->TIMPresSelection));

    /* Configure Timer Prescaler */
    __HAL_RCC_TIMCLKPRESCALER(PeriphClkInit->TIMPresSelection);
 8002b7a:	4b91      	ldr	r3, [pc, #580]	; (8002dc0 <HAL_RCCEx_PeriphCLKConfig+0x2e8>)
 8002b7c:	f8d3 208c 	ldr.w	r2, [r3, #140]	; 0x8c
 8002b80:	f022 7280 	bic.w	r2, r2, #16777216	; 0x1000000
 8002b84:	f8c3 208c 	str.w	r2, [r3, #140]	; 0x8c
 8002b88:	f8d3 208c 	ldr.w	r2, [r3, #140]	; 0x8c
 8002b8c:	6ba1      	ldr	r1, [r4, #56]	; 0x38
 8002b8e:	430a      	orrs	r2, r1
 8002b90:	f8c3 208c 	str.w	r2, [r3, #140]	; 0x8c
  }

  /*-------------------------------------- I2C1 Configuration -----------------------------------*/
  if(((PeriphClkInit->PeriphClockSelection) & RCC_PERIPHCLK_I2C1) == RCC_PERIPHCLK_I2C1)
 8002b94:	6823      	ldr	r3, [r4, #0]
 8002b96:	f413 4f80 	tst.w	r3, #16384	; 0x4000
 8002b9a:	d008      	beq.n	8002bae <HAL_RCCEx_PeriphCLKConfig+0xd6>
  {
    /* Check the parameters */
    assert_param(IS_RCC_I2C1CLKSOURCE(PeriphClkInit->I2c1ClockSelection));

    /* Configure the I2C1 clock source */
    __HAL_RCC_I2C1_CONFIG(PeriphClkInit->I2c1ClockSelection);
 8002b9c:	4a88      	ldr	r2, [pc, #544]	; (8002dc0 <HAL_RCCEx_PeriphCLKConfig+0x2e8>)
 8002b9e:	f8d2 3090 	ldr.w	r3, [r2, #144]	; 0x90
 8002ba2:	f423 3340 	bic.w	r3, r3, #196608	; 0x30000
 8002ba6:	6e61      	ldr	r1, [r4, #100]	; 0x64
 8002ba8:	430b      	orrs	r3, r1
 8002baa:	f8c2 3090 	str.w	r3, [r2, #144]	; 0x90
  }

  /*-------------------------------------- I2C2 Configuration -----------------------------------*/
  if(((PeriphClkInit->PeriphClockSelection) & RCC_PERIPHCLK_I2C2) == RCC_PERIPHCLK_I2C2)
 8002bae:	6823      	ldr	r3, [r4, #0]
 8002bb0:	f413 4f00 	tst.w	r3, #32768	; 0x8000
 8002bb4:	d008      	beq.n	8002bc8 <HAL_RCCEx_PeriphCLKConfig+0xf0>
  {
    /* Check the parameters */
    assert_param(IS_RCC_I2C2CLKSOURCE(PeriphClkInit->I2c2ClockSelection));

    /* Configure the I2C2 clock source */
    __HAL_RCC_I2C2_CONFIG(PeriphClkInit->I2c2ClockSelection);
 8002bb6:	4a82      	ldr	r2, [pc, #520]	; (8002dc0 <HAL_RCCEx_PeriphCLKConfig+0x2e8>)
 8002bb8:	f8d2 3090 	ldr.w	r3, [r2, #144]	; 0x90
 8002bbc:	f423 2340 	bic.w	r3, r3, #786432	; 0xc0000
 8002bc0:	6ea1      	ldr	r1, [r4, #104]	; 0x68
 8002bc2:	430b      	orrs	r3, r1
 8002bc4:	f8c2 3090 	str.w	r3, [r2, #144]	; 0x90
  }

  /*-------------------------------------- I2C3 Configuration -----------------------------------*/
  if(((PeriphClkInit->PeriphClockSelection) & RCC_PERIPHCLK_I2C3) == RCC_PERIPHCLK_I2C3)
 8002bc8:	6823      	ldr	r3, [r4, #0]
 8002bca:	f413 3f80 	tst.w	r3, #65536	; 0x10000
 8002bce:	d008      	beq.n	8002be2 <HAL_RCCEx_PeriphCLKConfig+0x10a>
  {
    /* Check the parameters */
    assert_param(IS_RCC_I2C3CLKSOURCE(PeriphClkInit->I2c3ClockSelection));

    /* Configure the I2C3 clock source */
    __HAL_RCC_I2C3_CONFIG(PeriphClkInit->I2c3ClockSelection);
 8002bd0:	4a7b      	ldr	r2, [pc, #492]	; (8002dc0 <HAL_RCCEx_PeriphCLKConfig+0x2e8>)
 8002bd2:	f8d2 3090 	ldr.w	r3, [r2, #144]	; 0x90
 8002bd6:	f423 1340 	bic.w	r3, r3, #3145728	; 0x300000
 8002bda:	6ee1      	ldr	r1, [r4, #108]	; 0x6c
 8002bdc:	430b      	orrs	r3, r1
 8002bde:	f8c2 3090 	str.w	r3, [r2, #144]	; 0x90
  }

  /*-------------------------------------- I2C4 Configuration -----------------------------------*/
  if(((PeriphClkInit->PeriphClockSelection) & RCC_PERIPHCLK_I2C4) == RCC_PERIPHCLK_I2C4)
 8002be2:	6823      	ldr	r3, [r4, #0]
 8002be4:	f413 3f00 	tst.w	r3, #131072	; 0x20000
 8002be8:	d008      	beq.n	8002bfc <HAL_RCCEx_PeriphCLKConfig+0x124>
  {
    /* Check the parameters */
    assert_param(IS_RCC_I2C4CLKSOURCE(PeriphClkInit->I2c4ClockSelection));

    /* Configure the I2C4 clock source */
    __HAL_RCC_I2C4_CONFIG(PeriphClkInit->I2c4ClockSelection);
 8002bea:	4a75      	ldr	r2, [pc, #468]	; (8002dc0 <HAL_RCCEx_PeriphCLKConfig+0x2e8>)
 8002bec:	f8d2 3090 	ldr.w	r3, [r2, #144]	; 0x90
 8002bf0:	f423 0340 	bic.w	r3, r3, #12582912	; 0xc00000
 8002bf4:	6f21      	ldr	r1, [r4, #112]	; 0x70
 8002bf6:	430b      	orrs	r3, r1
 8002bf8:	f8c2 3090 	str.w	r3, [r2, #144]	; 0x90
  }

  /*-------------------------------------- USART1 Configuration -----------------------------------*/
  if(((PeriphClkInit->PeriphClockSelection) & RCC_PERIPHCLK_USART1) == RCC_PERIPHCLK_USART1)
 8002bfc:	6823      	ldr	r3, [r4, #0]
 8002bfe:	f013 0f40 	tst.w	r3, #64	; 0x40
 8002c02:	d008      	beq.n	8002c16 <HAL_RCCEx_PeriphCLKConfig+0x13e>
  {
    /* Check the parameters */
    assert_param(IS_RCC_USART1CLKSOURCE(PeriphClkInit->Usart1ClockSelection));

    /* Configure the USART1 clock source */
    __HAL_RCC_USART1_CONFIG(PeriphClkInit->Usart1ClockSelection);
 8002c04:	4a6e      	ldr	r2, [pc, #440]	; (8002dc0 <HAL_RCCEx_PeriphCLKConfig+0x2e8>)
 8002c06:	f8d2 3090 	ldr.w	r3, [r2, #144]	; 0x90
 8002c0a:	f023 0303 	bic.w	r3, r3, #3
 8002c0e:	6c61      	ldr	r1, [r4, #68]	; 0x44
 8002c10:	430b      	orrs	r3, r1
 8002c12:	f8c2 3090 	str.w	r3, [r2, #144]	; 0x90
  }

  /*-------------------------------------- USART2 Configuration -----------------------------------*/
  if(((PeriphClkInit->PeriphClockSelection) & RCC_PERIPHCLK_USART2) == RCC_PERIPHCLK_USART2)
 8002c16:	6823      	ldr	r3, [r4, #0]
 8002c18:	f013 0f80 	tst.w	r3, #128	; 0x80
 8002c1c:	d008      	beq.n	8002c30 <HAL_RCCEx_PeriphCLKConfig+0x158>
  {
    /* Check the parameters */
    assert_param(IS_RCC_USART2CLKSOURCE(PeriphClkInit->Usart2ClockSelection));

    /* Configure the USART2 clock source */
    __HAL_RCC_USART2_CONFIG(PeriphClkInit->Usart2ClockSelection);
 8002c1e:	4a68      	ldr	r2, [pc, #416]	; (8002dc0 <HAL_RCCEx_PeriphCLKConfig+0x2e8>)
 8002c20:	f8d2 3090 	ldr.w	r3, [r2, #144]	; 0x90
 8002c24:	f023 030c 	bic.w	r3, r3, #12
 8002c28:	6ca1      	ldr	r1, [r4, #72]	; 0x48
 8002c2a:	430b      	orrs	r3, r1
 8002c2c:	f8c2 3090 	str.w	r3, [r2, #144]	; 0x90
  }

  /*-------------------------------------- USART3 Configuration -----------------------------------*/
  if(((PeriphClkInit->PeriphClockSelection) & RCC_PERIPHCLK_USART3) == RCC_PERIPHCLK_USART3)
 8002c30:	6823      	ldr	r3, [r4, #0]
 8002c32:	f413 7f80 	tst.w	r3, #256	; 0x100
 8002c36:	d008      	beq.n	8002c4a <HAL_RCCEx_PeriphCLKConfig+0x172>
  {
    /* Check the parameters */
    assert_param(IS_RCC_USART3CLKSOURCE(PeriphClkInit->Usart3ClockSelection));

    /* Configure the USART3 clock source */
    __HAL_RCC_USART3_CONFIG(PeriphClkInit->Usart3ClockSelection);
 8002c38:	4a61      	ldr	r2, [pc, #388]	; (8002dc0 <HAL_RCCEx_PeriphCLKConfig+0x2e8>)
 8002c3a:	f8d2 3090 	ldr.w	r3, [r2, #144]	; 0x90
 8002c3e:	f023 0330 	bic.w	r3, r3, #48	; 0x30
 8002c42:	6ce1      	ldr	r1, [r4, #76]	; 0x4c
 8002c44:	430b      	orrs	r3, r1
 8002c46:	f8c2 3090 	str.w	r3, [r2, #144]	; 0x90
  }

  /*-------------------------------------- UART4 Configuration -----------------------------------*/
  if(((PeriphClkInit->PeriphClockSelection) & RCC_PERIPHCLK_UART4) == RCC_PERIPHCLK_UART4)
 8002c4a:	6823      	ldr	r3, [r4, #0]
 8002c4c:	f413 7f00 	tst.w	r3, #512	; 0x200
 8002c50:	d008      	beq.n	8002c64 <HAL_RCCEx_PeriphCLKConfig+0x18c>
  {
    /* Check the parameters */
    assert_param(IS_RCC_UART4CLKSOURCE(PeriphClkInit->Uart4ClockSelection));

    /* Configure the UART4 clock source */
    __HAL_RCC_UART4_CONFIG(PeriphClkInit->Uart4ClockSelection);
 8002c52:	4a5b      	ldr	r2, [pc, #364]	; (8002dc0 <HAL_RCCEx_PeriphCLKConfig+0x2e8>)
 8002c54:	f8d2 3090 	ldr.w	r3, [r2, #144]	; 0x90
 8002c58:	f023 03c0 	bic.w	r3, r3, #192	; 0xc0
 8002c5c:	6d21      	ldr	r1, [r4, #80]	; 0x50
 8002c5e:	430b      	orrs	r3, r1
 8002c60:	f8c2 3090 	str.w	r3, [r2, #144]	; 0x90
  }

  /*-------------------------------------- UART5 Configuration -----------------------------------*/
  if(((PeriphClkInit->PeriphClockSelection) & RCC_PERIPHCLK_UART5) == RCC_PERIPHCLK_UART5)
 8002c64:	6823      	ldr	r3, [r4, #0]
 8002c66:	f413 6f80 	tst.w	r3, #1024	; 0x400
 8002c6a:	d008      	beq.n	8002c7e <HAL_RCCEx_PeriphCLKConfig+0x1a6>
  {
    /* Check the parameters */
    assert_param(IS_RCC_UART5CLKSOURCE(PeriphClkInit->Uart5ClockSelection));

    /* Configure the UART5 clock source */
    __HAL_RCC_UART5_CONFIG(PeriphClkInit->Uart5ClockSelection);
 8002c6c:	4a54      	ldr	r2, [pc, #336]	; (8002dc0 <HAL_RCCEx_PeriphCLKConfig+0x2e8>)
 8002c6e:	f8d2 3090 	ldr.w	r3, [r2, #144]	; 0x90
 8002c72:	f423 7340 	bic.w	r3, r3, #768	; 0x300
 8002c76:	6d61      	ldr	r1, [r4, #84]	; 0x54
 8002c78:	430b      	orrs	r3, r1
 8002c7a:	f8c2 3090 	str.w	r3, [r2, #144]	; 0x90
  }

  /*-------------------------------------- USART6 Configuration -----------------------------------*/
  if(((PeriphClkInit->PeriphClockSelection) & RCC_PERIPHCLK_USART6) == RCC_PERIPHCLK_USART6)
 8002c7e:	6823      	ldr	r3, [r4, #0]
 8002c80:	f413 6f00 	tst.w	r3, #2048	; 0x800
 8002c84:	d008      	beq.n	8002c98 <HAL_RCCEx_PeriphCLKConfig+0x1c0>
  {
    /* Check the parameters */
    assert_param(IS_RCC_USART6CLKSOURCE(PeriphClkInit->Usart6ClockSelection));

    /* Configure the USART6 clock source */
    __HAL_RCC_USART6_CONFIG(PeriphClkInit->Usart6ClockSelection);
 8002c86:	4a4e      	ldr	r2, [pc, #312]	; (8002dc0 <HAL_RCCEx_PeriphCLKConfig+0x2e8>)
 8002c88:	f8d2 3090 	ldr.w	r3, [r2, #144]	; 0x90
 8002c8c:	f423 6340 	bic.w	r3, r3, #3072	; 0xc00
 8002c90:	6da1      	ldr	r1, [r4, #88]	; 0x58
 8002c92:	430b      	orrs	r3, r1
 8002c94:	f8c2 3090 	str.w	r3, [r2, #144]	; 0x90
  }

  /*-------------------------------------- UART7 Configuration -----------------------------------*/
  if(((PeriphClkInit->PeriphClockSelection) & RCC_PERIPHCLK_UART7) == RCC_PERIPHCLK_UART7)
 8002c98:	6823      	ldr	r3, [r4, #0]
 8002c9a:	f413 5f80 	tst.w	r3, #4096	; 0x1000
 8002c9e:	d008      	beq.n	8002cb2 <HAL_RCCEx_PeriphCLKConfig+0x1da>
  {
    /* Check the parameters */
    assert_param(IS_RCC_UART7CLKSOURCE(PeriphClkInit->Uart7ClockSelection));

    /* Configure the UART7 clock source */
    __HAL_RCC_UART7_CONFIG(PeriphClkInit->Uart7ClockSelection);
 8002ca0:	4a47      	ldr	r2, [pc, #284]	; (8002dc0 <HAL_RCCEx_PeriphCLKConfig+0x2e8>)
 8002ca2:	f8d2 3090 	ldr.w	r3, [r2, #144]	; 0x90
 8002ca6:	f423 5340 	bic.w	r3, r3, #12288	; 0x3000
 8002caa:	6de1      	ldr	r1, [r4, #92]	; 0x5c
 8002cac:	430b      	orrs	r3, r1
 8002cae:	f8c2 3090 	str.w	r3, [r2, #144]	; 0x90
  }

  /*-------------------------------------- UART8 Configuration -----------------------------------*/
  if(((PeriphClkInit->PeriphClockSelection) & RCC_PERIPHCLK_UART8) == RCC_PERIPHCLK_UART8)
 8002cb2:	6823      	ldr	r3, [r4, #0]
 8002cb4:	f413 5f00 	tst.w	r3, #8192	; 0x2000
 8002cb8:	d008      	beq.n	8002ccc <HAL_RCCEx_PeriphCLKConfig+0x1f4>
  {
    /* Check the parameters */
    assert_param(IS_RCC_UART8CLKSOURCE(PeriphClkInit->Uart8ClockSelection));

    /* Configure the UART8 clock source */
    __HAL_RCC_UART8_CONFIG(PeriphClkInit->Uart8ClockSelection);
 8002cba:	4a41      	ldr	r2, [pc, #260]	; (8002dc0 <HAL_RCCEx_PeriphCLKConfig+0x2e8>)
 8002cbc:	f8d2 3090 	ldr.w	r3, [r2, #144]	; 0x90
 8002cc0:	f423 4340 	bic.w	r3, r3, #49152	; 0xc000
 8002cc4:	6e21      	ldr	r1, [r4, #96]	; 0x60
 8002cc6:	430b      	orrs	r3, r1
 8002cc8:	f8c2 3090 	str.w	r3, [r2, #144]	; 0x90
  }

  /*--------------------------------------- CEC Configuration -----------------------------------*/
  if(((PeriphClkInit->PeriphClockSelection) & RCC_PERIPHCLK_CEC) == RCC_PERIPHCLK_CEC)
 8002ccc:	6823      	ldr	r3, [r4, #0]
 8002cce:	f413 0f80 	tst.w	r3, #4194304	; 0x400000
 8002cd2:	d008      	beq.n	8002ce6 <HAL_RCCEx_PeriphCLKConfig+0x20e>
  {
    /* Check the parameters */
    assert_param(IS_RCC_CECCLKSOURCE(PeriphClkInit->CecClockSelection));

    /* Configure the CEC clock source */
    __HAL_RCC_CEC_CONFIG(PeriphClkInit->CecClockSelection);
 8002cd4:	4a3a      	ldr	r2, [pc, #232]	; (8002dc0 <HAL_RCCEx_PeriphCLKConfig+0x2e8>)
 8002cd6:	f8d2 3090 	ldr.w	r3, [r2, #144]	; 0x90
 8002cda:	f023 6380 	bic.w	r3, r3, #67108864	; 0x4000000
 8002cde:	6fa1      	ldr	r1, [r4, #120]	; 0x78
 8002ce0:	430b      	orrs	r3, r1
 8002ce2:	f8c2 3090 	str.w	r3, [r2, #144]	; 0x90
  }

  /*-------------------------------------- CK48 Configuration -----------------------------------*/
  if(((PeriphClkInit->PeriphClockSelection) & RCC_PERIPHCLK_CLK48) == RCC_PERIPHCLK_CLK48)
 8002ce6:	6823      	ldr	r3, [r4, #0]
 8002ce8:	f413 1f00 	tst.w	r3, #2097152	; 0x200000
 8002cec:	d00d      	beq.n	8002d0a <HAL_RCCEx_PeriphCLKConfig+0x232>
  {
    /* Check the parameters */
    assert_param(IS_RCC_CLK48SOURCE(PeriphClkInit->Clk48ClockSelection));

    /* Configure the CLK48 source */
    __HAL_RCC_CLK48_CONFIG(PeriphClkInit->Clk48ClockSelection);
 8002cee:	4a34      	ldr	r2, [pc, #208]	; (8002dc0 <HAL_RCCEx_PeriphCLKConfig+0x2e8>)
 8002cf0:	f8d2 3090 	ldr.w	r3, [r2, #144]	; 0x90
 8002cf4:	f023 6300 	bic.w	r3, r3, #134217728	; 0x8000000
 8002cf8:	6fe1      	ldr	r1, [r4, #124]	; 0x7c
 8002cfa:	430b      	orrs	r3, r1
 8002cfc:	f8c2 3090 	str.w	r3, [r2, #144]	; 0x90

    /* Enable the PLLSAI when it's used as clock source for CK48 */
    if(PeriphClkInit->Clk48ClockSelection == RCC_CLK48SOURCE_PLLSAIP)
 8002d00:	6fe3      	ldr	r3, [r4, #124]	; 0x7c
 8002d02:	f1b3 6f00 	cmp.w	r3, #134217728	; 0x8000000
 8002d06:	f000 80a7 	beq.w	8002e58 <HAL_RCCEx_PeriphCLKConfig+0x380>
    }
  }

  /*-------------------------------------- LTDC Configuration -----------------------------------*/
#if defined(STM32F746xx) || defined(STM32F756xx) || defined (STM32F767xx) || defined (STM32F769xx) || defined (STM32F777xx) || defined (STM32F779xx) || defined (STM32F750xx)
  if(((PeriphClkInit->PeriphClockSelection) & RCC_PERIPHCLK_LTDC) == RCC_PERIPHCLK_LTDC)
 8002d0a:	6823      	ldr	r3, [r4, #0]
 8002d0c:	f013 0f08 	tst.w	r3, #8
 8002d10:	d000      	beq.n	8002d14 <HAL_RCCEx_PeriphCLKConfig+0x23c>
  {
    pllsaiused = 1;
 8002d12:	2501      	movs	r5, #1
  }
#endif /* STM32F746xx || STM32F756xx || STM32F767xx || STM32F769xx || STM32F777xx || STM32F779xx || STM32F750xx */

  /*-------------------------------------- LPTIM1 Configuration -----------------------------------*/
  if(((PeriphClkInit->PeriphClockSelection) & RCC_PERIPHCLK_LPTIM1) == RCC_PERIPHCLK_LPTIM1)
 8002d14:	f413 2f80 	tst.w	r3, #262144	; 0x40000
 8002d18:	d008      	beq.n	8002d2c <HAL_RCCEx_PeriphCLKConfig+0x254>
  {
    /* Check the parameters */
    assert_param(IS_RCC_LPTIM1CLK(PeriphClkInit->Lptim1ClockSelection));

    /* Configure the LTPIM1 clock source */
    __HAL_RCC_LPTIM1_CONFIG(PeriphClkInit->Lptim1ClockSelection);
 8002d1a:	4a29      	ldr	r2, [pc, #164]	; (8002dc0 <HAL_RCCEx_PeriphCLKConfig+0x2e8>)
 8002d1c:	f8d2 3090 	ldr.w	r3, [r2, #144]	; 0x90
 8002d20:	f023 7340 	bic.w	r3, r3, #50331648	; 0x3000000
 8002d24:	6f61      	ldr	r1, [r4, #116]	; 0x74
 8002d26:	430b      	orrs	r3, r1
 8002d28:	f8c2 3090 	str.w	r3, [r2, #144]	; 0x90
   }

  /*------------------------------------- SDMMC1 Configuration ------------------------------------*/
  if(((PeriphClkInit->PeriphClockSelection) & RCC_PERIPHCLK_SDMMC1) == RCC_PERIPHCLK_SDMMC1)
 8002d2c:	6823      	ldr	r3, [r4, #0]
 8002d2e:	f413 0f00 	tst.w	r3, #8388608	; 0x800000
 8002d32:	d009      	beq.n	8002d48 <HAL_RCCEx_PeriphCLKConfig+0x270>
  {
    /* Check the parameters */
    assert_param(IS_RCC_SDMMC1CLKSOURCE(PeriphClkInit->Sdmmc1ClockSelection));

    /* Configure the SDMMC1 clock source */
    __HAL_RCC_SDMMC1_CONFIG(PeriphClkInit->Sdmmc1ClockSelection);
 8002d34:	4a22      	ldr	r2, [pc, #136]	; (8002dc0 <HAL_RCCEx_PeriphCLKConfig+0x2e8>)
 8002d36:	f8d2 3090 	ldr.w	r3, [r2, #144]	; 0x90
 8002d3a:	f023 5380 	bic.w	r3, r3, #268435456	; 0x10000000
 8002d3e:	f8d4 1080 	ldr.w	r1, [r4, #128]	; 0x80
 8002d42:	430b      	orrs	r3, r1
 8002d44:	f8c2 3090 	str.w	r3, [r2, #144]	; 0x90
  }
#endif /* STM32F767xx || STM32F769xx || STM32F777xx || STM32F779xx */

  /*-------------------------------------- PLLI2S Configuration ---------------------------------*/
  /* PLLI2S is configured when a peripheral will use it as source clock : SAI1, SAI2, I2S or SPDIF-RX */
  if((plli2sused == 1) || ((PeriphClkInit->PeriphClockSelection & RCC_PERIPHCLK_PLLI2S) == RCC_PERIPHCLK_PLLI2S))
 8002d48:	b926      	cbnz	r6, 8002d54 <HAL_RCCEx_PeriphCLKConfig+0x27c>
 8002d4a:	6823      	ldr	r3, [r4, #0]
 8002d4c:	f013 7f00 	tst.w	r3, #33554432	; 0x2000000
 8002d50:	f000 8102 	beq.w	8002f58 <HAL_RCCEx_PeriphCLKConfig+0x480>
  {
    /* Disable the PLLI2S */
    __HAL_RCC_PLLI2S_DISABLE();
 8002d54:	4a1a      	ldr	r2, [pc, #104]	; (8002dc0 <HAL_RCCEx_PeriphCLKConfig+0x2e8>)
 8002d56:	6813      	ldr	r3, [r2, #0]
 8002d58:	f023 6380 	bic.w	r3, r3, #67108864	; 0x4000000
 8002d5c:	6013      	str	r3, [r2, #0]

    /* Get Start Tick*/
    tickstart = HAL_GetTick();
 8002d5e:	f7fe fd87 	bl	8001870 <HAL_GetTick>
 8002d62:	4606      	mov	r6, r0

    /* Wait till PLLI2S is disabled */
    while(__HAL_RCC_GET_FLAG(RCC_FLAG_PLLI2SRDY)  != RESET)
 8002d64:	4b16      	ldr	r3, [pc, #88]	; (8002dc0 <HAL_RCCEx_PeriphCLKConfig+0x2e8>)
 8002d66:	681b      	ldr	r3, [r3, #0]
 8002d68:	f013 6f00 	tst.w	r3, #134217728	; 0x8000000
 8002d6c:	d076      	beq.n	8002e5c <HAL_RCCEx_PeriphCLKConfig+0x384>
    {
      if((HAL_GetTick() - tickstart) > PLLI2S_TIMEOUT_VALUE)
 8002d6e:	f7fe fd7f 	bl	8001870 <HAL_GetTick>
 8002d72:	1b80      	subs	r0, r0, r6
 8002d74:	2864      	cmp	r0, #100	; 0x64
 8002d76:	d9f5      	bls.n	8002d64 <HAL_RCCEx_PeriphCLKConfig+0x28c>
      {
        /* return in case of Timeout detected */
        return HAL_TIMEOUT;
 8002d78:	2003      	movs	r0, #3
 8002d7a:	e0ef      	b.n	8002f5c <HAL_RCCEx_PeriphCLKConfig+0x484>
      pllsaiused = 1;
 8002d7c:	2501      	movs	r5, #1
 8002d7e:	e6db      	b.n	8002b38 <HAL_RCCEx_PeriphCLKConfig+0x60>
      plli2sused = 1;
 8002d80:	2601      	movs	r6, #1
 8002d82:	e6eb      	b.n	8002b5c <HAL_RCCEx_PeriphCLKConfig+0x84>
    __HAL_RCC_PWR_CLK_ENABLE();
 8002d84:	4b0e      	ldr	r3, [pc, #56]	; (8002dc0 <HAL_RCCEx_PeriphCLKConfig+0x2e8>)
 8002d86:	6c1a      	ldr	r2, [r3, #64]	; 0x40
 8002d88:	f042 5280 	orr.w	r2, r2, #268435456	; 0x10000000
 8002d8c:	641a      	str	r2, [r3, #64]	; 0x40
 8002d8e:	6c1b      	ldr	r3, [r3, #64]	; 0x40
 8002d90:	f003 5380 	and.w	r3, r3, #268435456	; 0x10000000
 8002d94:	9301      	str	r3, [sp, #4]
 8002d96:	9b01      	ldr	r3, [sp, #4]
    PWR->CR1 |= PWR_CR1_DBP;
 8002d98:	4a0a      	ldr	r2, [pc, #40]	; (8002dc4 <HAL_RCCEx_PeriphCLKConfig+0x2ec>)
 8002d9a:	6813      	ldr	r3, [r2, #0]
 8002d9c:	f443 7380 	orr.w	r3, r3, #256	; 0x100
 8002da0:	6013      	str	r3, [r2, #0]
    tickstart = HAL_GetTick();
 8002da2:	f7fe fd65 	bl	8001870 <HAL_GetTick>
 8002da6:	4607      	mov	r7, r0
    while((PWR->CR1 & PWR_CR1_DBP) == RESET)
 8002da8:	4b06      	ldr	r3, [pc, #24]	; (8002dc4 <HAL_RCCEx_PeriphCLKConfig+0x2ec>)
 8002daa:	681b      	ldr	r3, [r3, #0]
 8002dac:	f413 7f80 	tst.w	r3, #256	; 0x100
 8002db0:	d10a      	bne.n	8002dc8 <HAL_RCCEx_PeriphCLKConfig+0x2f0>
      if((HAL_GetTick() - tickstart) > RCC_DBP_TIMEOUT_VALUE)
 8002db2:	f7fe fd5d 	bl	8001870 <HAL_GetTick>
 8002db6:	1bc0      	subs	r0, r0, r7
 8002db8:	2864      	cmp	r0, #100	; 0x64
 8002dba:	d9f5      	bls.n	8002da8 <HAL_RCCEx_PeriphCLKConfig+0x2d0>
        return HAL_TIMEOUT;
 8002dbc:	2003      	movs	r0, #3
 8002dbe:	e0cd      	b.n	8002f5c <HAL_RCCEx_PeriphCLKConfig+0x484>
 8002dc0:	40023800 	.word	0x40023800
 8002dc4:	40007000 	.word	0x40007000
    tmpreg0 = (RCC->BDCR & RCC_BDCR_RTCSEL);
 8002dc8:	4baa      	ldr	r3, [pc, #680]	; (8003074 <HAL_RCCEx_PeriphCLKConfig+0x59c>)
 8002dca:	6f1b      	ldr	r3, [r3, #112]	; 0x70
    if((tmpreg0 != 0x00000000U) && (tmpreg0 != (PeriphClkInit->RTCClockSelection & RCC_BDCR_RTCSEL)))
 8002dcc:	f413 7340 	ands.w	r3, r3, #768	; 0x300
 8002dd0:	d015      	beq.n	8002dfe <HAL_RCCEx_PeriphCLKConfig+0x326>
 8002dd2:	6b22      	ldr	r2, [r4, #48]	; 0x30
 8002dd4:	f402 7240 	and.w	r2, r2, #768	; 0x300
 8002dd8:	429a      	cmp	r2, r3
 8002dda:	d010      	beq.n	8002dfe <HAL_RCCEx_PeriphCLKConfig+0x326>
      tmpreg0 = (RCC->BDCR & ~(RCC_BDCR_RTCSEL));
 8002ddc:	4ba5      	ldr	r3, [pc, #660]	; (8003074 <HAL_RCCEx_PeriphCLKConfig+0x59c>)
 8002dde:	6f1a      	ldr	r2, [r3, #112]	; 0x70
 8002de0:	f422 7240 	bic.w	r2, r2, #768	; 0x300
      __HAL_RCC_BACKUPRESET_FORCE();
 8002de4:	6f19      	ldr	r1, [r3, #112]	; 0x70
 8002de6:	f441 3180 	orr.w	r1, r1, #65536	; 0x10000
 8002dea:	6719      	str	r1, [r3, #112]	; 0x70
      __HAL_RCC_BACKUPRESET_RELEASE();
 8002dec:	6f19      	ldr	r1, [r3, #112]	; 0x70
 8002dee:	f421 3180 	bic.w	r1, r1, #65536	; 0x10000
 8002df2:	6719      	str	r1, [r3, #112]	; 0x70
      RCC->BDCR = tmpreg0;
 8002df4:	671a      	str	r2, [r3, #112]	; 0x70
      if (HAL_IS_BIT_SET(RCC->BDCR, RCC_BDCR_LSEON))
 8002df6:	6f1b      	ldr	r3, [r3, #112]	; 0x70
 8002df8:	f013 0f01 	tst.w	r3, #1
 8002dfc:	d112      	bne.n	8002e24 <HAL_RCCEx_PeriphCLKConfig+0x34c>
    __HAL_RCC_RTC_CONFIG(PeriphClkInit->RTCClockSelection);
 8002dfe:	6b23      	ldr	r3, [r4, #48]	; 0x30
 8002e00:	f403 7240 	and.w	r2, r3, #768	; 0x300
 8002e04:	f5b2 7f40 	cmp.w	r2, #768	; 0x300
 8002e08:	d01d      	beq.n	8002e46 <HAL_RCCEx_PeriphCLKConfig+0x36e>
 8002e0a:	4a9a      	ldr	r2, [pc, #616]	; (8003074 <HAL_RCCEx_PeriphCLKConfig+0x59c>)
 8002e0c:	6893      	ldr	r3, [r2, #8]
 8002e0e:	f423 13f8 	bic.w	r3, r3, #2031616	; 0x1f0000
 8002e12:	6093      	str	r3, [r2, #8]
 8002e14:	4997      	ldr	r1, [pc, #604]	; (8003074 <HAL_RCCEx_PeriphCLKConfig+0x59c>)
 8002e16:	6f0b      	ldr	r3, [r1, #112]	; 0x70
 8002e18:	6b22      	ldr	r2, [r4, #48]	; 0x30
 8002e1a:	f3c2 020b 	ubfx	r2, r2, #0, #12
 8002e1e:	4313      	orrs	r3, r2
 8002e20:	670b      	str	r3, [r1, #112]	; 0x70
 8002e22:	e6a6      	b.n	8002b72 <HAL_RCCEx_PeriphCLKConfig+0x9a>
        tickstart = HAL_GetTick();
 8002e24:	f7fe fd24 	bl	8001870 <HAL_GetTick>
 8002e28:	4607      	mov	r7, r0
        while(__HAL_RCC_GET_FLAG(RCC_FLAG_LSERDY) == RESET)
 8002e2a:	4b92      	ldr	r3, [pc, #584]	; (8003074 <HAL_RCCEx_PeriphCLKConfig+0x59c>)
 8002e2c:	6f1b      	ldr	r3, [r3, #112]	; 0x70
 8002e2e:	f013 0f02 	tst.w	r3, #2
 8002e32:	d1e4      	bne.n	8002dfe <HAL_RCCEx_PeriphCLKConfig+0x326>
          if((HAL_GetTick() - tickstart ) > RCC_LSE_TIMEOUT_VALUE)
 8002e34:	f7fe fd1c 	bl	8001870 <HAL_GetTick>
 8002e38:	1bc0      	subs	r0, r0, r7
 8002e3a:	f241 3388 	movw	r3, #5000	; 0x1388
 8002e3e:	4298      	cmp	r0, r3
 8002e40:	d9f3      	bls.n	8002e2a <HAL_RCCEx_PeriphCLKConfig+0x352>
            return HAL_TIMEOUT;
 8002e42:	2003      	movs	r0, #3
 8002e44:	e08a      	b.n	8002f5c <HAL_RCCEx_PeriphCLKConfig+0x484>
    __HAL_RCC_RTC_CONFIG(PeriphClkInit->RTCClockSelection);
 8002e46:	488b      	ldr	r0, [pc, #556]	; (8003074 <HAL_RCCEx_PeriphCLKConfig+0x59c>)
 8002e48:	6882      	ldr	r2, [r0, #8]
 8002e4a:	f422 12f8 	bic.w	r2, r2, #2031616	; 0x1f0000
 8002e4e:	498a      	ldr	r1, [pc, #552]	; (8003078 <HAL_RCCEx_PeriphCLKConfig+0x5a0>)
 8002e50:	4019      	ands	r1, r3
 8002e52:	430a      	orrs	r2, r1
 8002e54:	6082      	str	r2, [r0, #8]
 8002e56:	e7dd      	b.n	8002e14 <HAL_RCCEx_PeriphCLKConfig+0x33c>
      pllsaiused = 1;
 8002e58:	2501      	movs	r5, #1
 8002e5a:	e756      	b.n	8002d0a <HAL_RCCEx_PeriphCLKConfig+0x232>

    /* check for common PLLI2S Parameters */
    assert_param(IS_RCC_PLLI2SN_VALUE(PeriphClkInit->PLLI2S.PLLI2SN));

    /*----------------- In Case of PLLI2S is selected as source clock for I2S -------------------*/
    if(((((PeriphClkInit->PeriphClockSelection) & RCC_PERIPHCLK_I2S) == RCC_PERIPHCLK_I2S) && (PeriphClkInit->I2sClockSelection == RCC_I2SCLKSOURCE_PLLI2S)))
 8002e5c:	6823      	ldr	r3, [r4, #0]
 8002e5e:	f013 0f01 	tst.w	r3, #1
 8002e62:	d013      	beq.n	8002e8c <HAL_RCCEx_PeriphCLKConfig+0x3b4>
 8002e64:	6b63      	ldr	r3, [r4, #52]	; 0x34
 8002e66:	b98b      	cbnz	r3, 8002e8c <HAL_RCCEx_PeriphCLKConfig+0x3b4>
    {
      /* check for Parameters */
      assert_param(IS_RCC_PLLI2SR_VALUE(PeriphClkInit->PLLI2S.PLLI2SR));

      /* Read PLLI2SP and PLLI2SQ value from PLLI2SCFGR register (this value is not needed for I2S configuration) */
      tmpreg0 = ((RCC->PLLI2SCFGR & RCC_PLLI2SCFGR_PLLI2SP) >> RCC_PLLI2SCFGR_PLLI2SP_Pos);
 8002e68:	4a82      	ldr	r2, [pc, #520]	; (8003074 <HAL_RCCEx_PeriphCLKConfig+0x59c>)
 8002e6a:	f8d2 3084 	ldr.w	r3, [r2, #132]	; 0x84
      tmpreg1 = ((RCC->PLLI2SCFGR & RCC_PLLI2SCFGR_PLLI2SQ) >> RCC_PLLI2SCFGR_PLLI2SQ_Pos);
 8002e6e:	f8d2 1084 	ldr.w	r1, [r2, #132]	; 0x84
      /* Configure the PLLI2S division factors */
      /* PLLI2S_VCO = f(VCO clock) = f(PLLI2S clock input) x (PLLI2SN/PLLM) */
      /* I2SCLK = f(PLLI2S clock output) = f(VCO clock) / PLLI2SR */
      __HAL_RCC_PLLI2S_CONFIG(PeriphClkInit->PLLI2S.PLLI2SN , tmpreg0, tmpreg1, PeriphClkInit->PLLI2S.PLLI2SR);
 8002e72:	6860      	ldr	r0, [r4, #4]
 8002e74:	f403 3340 	and.w	r3, r3, #196608	; 0x30000
 8002e78:	ea43 1380 	orr.w	r3, r3, r0, lsl #6
 8002e7c:	f001 6170 	and.w	r1, r1, #251658240	; 0xf000000
 8002e80:	430b      	orrs	r3, r1
 8002e82:	68a1      	ldr	r1, [r4, #8]
 8002e84:	ea43 7301 	orr.w	r3, r3, r1, lsl #28
 8002e88:	f8c2 3084 	str.w	r3, [r2, #132]	; 0x84
    }

    /*----------------- In Case of PLLI2S is selected as source clock for SAI -------------------*/
    if(((((PeriphClkInit->PeriphClockSelection) & RCC_PERIPHCLK_SAI1) == RCC_PERIPHCLK_SAI1) && (PeriphClkInit->Sai1ClockSelection == RCC_SAI1CLKSOURCE_PLLI2S)) ||
 8002e8c:	6823      	ldr	r3, [r4, #0]
 8002e8e:	f413 2f00 	tst.w	r3, #524288	; 0x80000
 8002e92:	d003      	beq.n	8002e9c <HAL_RCCEx_PeriphCLKConfig+0x3c4>
 8002e94:	6be2      	ldr	r2, [r4, #60]	; 0x3c
 8002e96:	f5b2 1f80 	cmp.w	r2, #1048576	; 0x100000
 8002e9a:	d006      	beq.n	8002eaa <HAL_RCCEx_PeriphCLKConfig+0x3d2>
 8002e9c:	f413 1f80 	tst.w	r3, #1048576	; 0x100000
 8002ea0:	d01e      	beq.n	8002ee0 <HAL_RCCEx_PeriphCLKConfig+0x408>
       ((((PeriphClkInit->PeriphClockSelection) & RCC_PERIPHCLK_SAI2) == RCC_PERIPHCLK_SAI2) && (PeriphClkInit->Sai2ClockSelection == RCC_SAI2CLKSOURCE_PLLI2S)))
 8002ea2:	6c23      	ldr	r3, [r4, #64]	; 0x40
 8002ea4:	f5b3 0f80 	cmp.w	r3, #4194304	; 0x400000
 8002ea8:	d11a      	bne.n	8002ee0 <HAL_RCCEx_PeriphCLKConfig+0x408>
      assert_param(IS_RCC_PLLI2SQ_VALUE(PeriphClkInit->PLLI2S.PLLI2SQ));
      /* Check for PLLI2S/DIVQ parameters */
      assert_param(IS_RCC_PLLI2S_DIVQ_VALUE(PeriphClkInit->PLLI2SDivQ));

      /* Read PLLI2SP and PLLI2SR values from PLLI2SCFGR register (this value is not needed for SAI configuration) */
      tmpreg0 = ((RCC->PLLI2SCFGR & RCC_PLLI2SCFGR_PLLI2SP) >> RCC_PLLI2SCFGR_PLLI2SP_Pos);
 8002eaa:	4a72      	ldr	r2, [pc, #456]	; (8003074 <HAL_RCCEx_PeriphCLKConfig+0x59c>)
 8002eac:	f8d2 3084 	ldr.w	r3, [r2, #132]	; 0x84
      tmpreg1 = ((RCC->PLLI2SCFGR & RCC_PLLI2SCFGR_PLLI2SR) >> RCC_PLLI2SCFGR_PLLI2SR_Pos);
 8002eb0:	f8d2 1084 	ldr.w	r1, [r2, #132]	; 0x84
      /* Configure the PLLI2S division factors */
      /* PLLI2S_VCO Input  = PLL_SOURCE/PLLM */
      /* PLLI2S_VCO Output = PLLI2S_VCO Input * PLLI2SN */
      /* SAI_CLK(first level) = PLLI2S_VCO Output/PLLI2SQ */
      __HAL_RCC_PLLI2S_CONFIG(PeriphClkInit->PLLI2S.PLLI2SN, tmpreg0, PeriphClkInit->PLLI2S.PLLI2SQ, tmpreg1);
 8002eb4:	6860      	ldr	r0, [r4, #4]
 8002eb6:	f403 3340 	and.w	r3, r3, #196608	; 0x30000
 8002eba:	ea43 1380 	orr.w	r3, r3, r0, lsl #6
 8002ebe:	68e0      	ldr	r0, [r4, #12]
 8002ec0:	ea43 6300 	orr.w	r3, r3, r0, lsl #24
 8002ec4:	f001 41e0 	and.w	r1, r1, #1879048192	; 0x70000000
 8002ec8:	430b      	orrs	r3, r1
 8002eca:	f8c2 3084 	str.w	r3, [r2, #132]	; 0x84

      /* SAI_CLK_x = SAI_CLK(first level)/PLLI2SDIVQ */
      __HAL_RCC_PLLI2S_PLLSAICLKDIVQ_CONFIG(PeriphClkInit->PLLI2SDivQ);
 8002ece:	f8d2 308c 	ldr.w	r3, [r2, #140]	; 0x8c
 8002ed2:	f023 031f 	bic.w	r3, r3, #31
 8002ed6:	6a61      	ldr	r1, [r4, #36]	; 0x24
 8002ed8:	3901      	subs	r1, #1
 8002eda:	430b      	orrs	r3, r1
 8002edc:	f8c2 308c 	str.w	r3, [r2, #140]	; 0x8c
    }

    /*----------------- In Case of PLLI2S is selected as source clock for SPDIF-RX -------------------*/
    if(((PeriphClkInit->PeriphClockSelection) & RCC_PERIPHCLK_SPDIFRX) == RCC_PERIPHCLK_SPDIFRX)
 8002ee0:	6823      	ldr	r3, [r4, #0]
 8002ee2:	f013 7f80 	tst.w	r3, #16777216	; 0x1000000
 8002ee6:	d011      	beq.n	8002f0c <HAL_RCCEx_PeriphCLKConfig+0x434>
    {
      /* check for Parameters */
      assert_param(IS_RCC_PLLI2SP_VALUE(PeriphClkInit->PLLI2S.PLLI2SP));

     /* Read PLLI2SR value from PLLI2SCFGR register (this value is not needed for SPDIF-RX configuration) */
      tmpreg0 = ((RCC->PLLI2SCFGR & RCC_PLLI2SCFGR_PLLI2SQ) >> RCC_PLLI2SCFGR_PLLI2SQ_Pos);
 8002ee8:	4a62      	ldr	r2, [pc, #392]	; (8003074 <HAL_RCCEx_PeriphCLKConfig+0x59c>)
 8002eea:	f8d2 0084 	ldr.w	r0, [r2, #132]	; 0x84
      tmpreg1 = ((RCC->PLLI2SCFGR & RCC_PLLI2SCFGR_PLLI2SR) >> RCC_PLLI2SCFGR_PLLI2SR_Pos);
 8002eee:	f8d2 1084 	ldr.w	r1, [r2, #132]	; 0x84
      /* Configure the PLLI2S division factors */
      /* PLLI2S_VCO = f(VCO clock) = f(PLLI2S clock input) x (PLLI2SN/PLLM) */
      /* SPDIFCLK = f(PLLI2S clock output) = f(VCO clock) / PLLI2SP */
      __HAL_RCC_PLLI2S_CONFIG(PeriphClkInit->PLLI2S.PLLI2SN , PeriphClkInit->PLLI2S.PLLI2SP, tmpreg0, tmpreg1);
 8002ef2:	6866      	ldr	r6, [r4, #4]
 8002ef4:	6923      	ldr	r3, [r4, #16]
 8002ef6:	041b      	lsls	r3, r3, #16
 8002ef8:	ea43 1386 	orr.w	r3, r3, r6, lsl #6
 8002efc:	f000 6070 	and.w	r0, r0, #251658240	; 0xf000000
 8002f00:	4303      	orrs	r3, r0
 8002f02:	f001 41e0 	and.w	r1, r1, #1879048192	; 0x70000000
 8002f06:	430b      	orrs	r3, r1
 8002f08:	f8c2 3084 	str.w	r3, [r2, #132]	; 0x84
    }

    /*----------------- In Case of PLLI2S is just selected  -----------------*/
    if((PeriphClkInit->PeriphClockSelection & RCC_PERIPHCLK_PLLI2S) == RCC_PERIPHCLK_PLLI2S)
 8002f0c:	6823      	ldr	r3, [r4, #0]
 8002f0e:	f013 7f00 	tst.w	r3, #33554432	; 0x2000000
 8002f12:	d00d      	beq.n	8002f30 <HAL_RCCEx_PeriphCLKConfig+0x458>
      assert_param(IS_RCC_PLLI2SQ_VALUE(PeriphClkInit->PLLI2S.PLLI2SQ));

      /* Configure the PLLI2S division factors */
      /* PLLI2S_VCO = f(VCO clock) = f(PLLI2S clock input) x (PLLI2SN/PLLI2SM) */
      /* SPDIFRXCLK = f(PLLI2S clock output) = f(VCO clock) / PLLI2SP */
      __HAL_RCC_PLLI2S_CONFIG(PeriphClkInit->PLLI2S.PLLI2SN , PeriphClkInit->PLLI2S.PLLI2SP, PeriphClkInit->PLLI2S.PLLI2SQ, PeriphClkInit->PLLI2S.PLLI2SR);
 8002f14:	6862      	ldr	r2, [r4, #4]
 8002f16:	6923      	ldr	r3, [r4, #16]
 8002f18:	041b      	lsls	r3, r3, #16
 8002f1a:	ea43 1382 	orr.w	r3, r3, r2, lsl #6
 8002f1e:	68e2      	ldr	r2, [r4, #12]
 8002f20:	ea43 6302 	orr.w	r3, r3, r2, lsl #24
 8002f24:	68a2      	ldr	r2, [r4, #8]
 8002f26:	ea43 7302 	orr.w	r3, r3, r2, lsl #28
 8002f2a:	4a52      	ldr	r2, [pc, #328]	; (8003074 <HAL_RCCEx_PeriphCLKConfig+0x59c>)
 8002f2c:	f8c2 3084 	str.w	r3, [r2, #132]	; 0x84
    }

    /* Enable the PLLI2S */
    __HAL_RCC_PLLI2S_ENABLE();
 8002f30:	4a50      	ldr	r2, [pc, #320]	; (8003074 <HAL_RCCEx_PeriphCLKConfig+0x59c>)
 8002f32:	6813      	ldr	r3, [r2, #0]
 8002f34:	f043 6380 	orr.w	r3, r3, #67108864	; 0x4000000
 8002f38:	6013      	str	r3, [r2, #0]

    /* Get Start Tick*/
    tickstart = HAL_GetTick();
 8002f3a:	f7fe fc99 	bl	8001870 <HAL_GetTick>
 8002f3e:	4606      	mov	r6, r0

    /* Wait till PLLI2S is ready */
    while(__HAL_RCC_GET_FLAG(RCC_FLAG_PLLI2SRDY)  == RESET)
 8002f40:	4b4c      	ldr	r3, [pc, #304]	; (8003074 <HAL_RCCEx_PeriphCLKConfig+0x59c>)
 8002f42:	681b      	ldr	r3, [r3, #0]
 8002f44:	f013 6f00 	tst.w	r3, #134217728	; 0x8000000
 8002f48:	d106      	bne.n	8002f58 <HAL_RCCEx_PeriphCLKConfig+0x480>
    {
      if((HAL_GetTick() - tickstart) > PLLI2S_TIMEOUT_VALUE)
 8002f4a:	f7fe fc91 	bl	8001870 <HAL_GetTick>
 8002f4e:	1b80      	subs	r0, r0, r6
 8002f50:	2864      	cmp	r0, #100	; 0x64
 8002f52:	d9f5      	bls.n	8002f40 <HAL_RCCEx_PeriphCLKConfig+0x468>
      {
        /* return in case of Timeout detected */
        return HAL_TIMEOUT;
 8002f54:	2003      	movs	r0, #3
 8002f56:	e001      	b.n	8002f5c <HAL_RCCEx_PeriphCLKConfig+0x484>
    }
  }

  /*-------------------------------------- PLLSAI Configuration ---------------------------------*/
  /* PLLSAI is configured when a peripheral will use it as source clock : SAI1, SAI2, LTDC or CK48 */
  if(pllsaiused == 1)
 8002f58:	b915      	cbnz	r5, 8002f60 <HAL_RCCEx_PeriphCLKConfig+0x488>
        /* return in case of Timeout detected */
        return HAL_TIMEOUT;
      }
    }
  }
  return HAL_OK;
 8002f5a:	2000      	movs	r0, #0
}
 8002f5c:	b003      	add	sp, #12
 8002f5e:	bdf0      	pop	{r4, r5, r6, r7, pc}
    __HAL_RCC_PLLSAI_DISABLE();
 8002f60:	4a44      	ldr	r2, [pc, #272]	; (8003074 <HAL_RCCEx_PeriphCLKConfig+0x59c>)
 8002f62:	6813      	ldr	r3, [r2, #0]
 8002f64:	f023 5380 	bic.w	r3, r3, #268435456	; 0x10000000
 8002f68:	6013      	str	r3, [r2, #0]
    tickstart = HAL_GetTick();
 8002f6a:	f7fe fc81 	bl	8001870 <HAL_GetTick>
 8002f6e:	4605      	mov	r5, r0
    while(__HAL_RCC_PLLSAI_GET_FLAG() != RESET)
 8002f70:	4b40      	ldr	r3, [pc, #256]	; (8003074 <HAL_RCCEx_PeriphCLKConfig+0x59c>)
 8002f72:	681b      	ldr	r3, [r3, #0]
 8002f74:	f013 5f00 	tst.w	r3, #536870912	; 0x20000000
 8002f78:	d006      	beq.n	8002f88 <HAL_RCCEx_PeriphCLKConfig+0x4b0>
      if((HAL_GetTick() - tickstart) > PLLSAI_TIMEOUT_VALUE)
 8002f7a:	f7fe fc79 	bl	8001870 <HAL_GetTick>
 8002f7e:	1b40      	subs	r0, r0, r5
 8002f80:	2864      	cmp	r0, #100	; 0x64
 8002f82:	d9f5      	bls.n	8002f70 <HAL_RCCEx_PeriphCLKConfig+0x498>
        return HAL_TIMEOUT;
 8002f84:	2003      	movs	r0, #3
 8002f86:	e7e9      	b.n	8002f5c <HAL_RCCEx_PeriphCLKConfig+0x484>
    if(((((PeriphClkInit->PeriphClockSelection) & RCC_PERIPHCLK_SAI1) == RCC_PERIPHCLK_SAI1) && (PeriphClkInit->Sai1ClockSelection == RCC_SAI1CLKSOURCE_PLLSAI)) ||\
 8002f88:	6823      	ldr	r3, [r4, #0]
 8002f8a:	f413 2f00 	tst.w	r3, #524288	; 0x80000
 8002f8e:	d001      	beq.n	8002f94 <HAL_RCCEx_PeriphCLKConfig+0x4bc>
 8002f90:	6be2      	ldr	r2, [r4, #60]	; 0x3c
 8002f92:	b122      	cbz	r2, 8002f9e <HAL_RCCEx_PeriphCLKConfig+0x4c6>
 8002f94:	f413 1f80 	tst.w	r3, #1048576	; 0x100000
 8002f98:	d01d      	beq.n	8002fd6 <HAL_RCCEx_PeriphCLKConfig+0x4fe>
       ((((PeriphClkInit->PeriphClockSelection) & RCC_PERIPHCLK_SAI2) == RCC_PERIPHCLK_SAI2) && (PeriphClkInit->Sai2ClockSelection == RCC_SAI2CLKSOURCE_PLLSAI)))
 8002f9a:	6c23      	ldr	r3, [r4, #64]	; 0x40
 8002f9c:	b9db      	cbnz	r3, 8002fd6 <HAL_RCCEx_PeriphCLKConfig+0x4fe>
      tmpreg0 = ((RCC->PLLSAICFGR & RCC_PLLSAICFGR_PLLSAIP) >> RCC_PLLSAICFGR_PLLSAIP_Pos);
 8002f9e:	4a35      	ldr	r2, [pc, #212]	; (8003074 <HAL_RCCEx_PeriphCLKConfig+0x59c>)
 8002fa0:	f8d2 3088 	ldr.w	r3, [r2, #136]	; 0x88
      tmpreg1 = ((RCC->PLLSAICFGR & RCC_PLLI2SCFGR_PLLI2SR) >> RCC_PLLSAICFGR_PLLSAIR_Pos);
 8002fa4:	f8d2 1088 	ldr.w	r1, [r2, #136]	; 0x88
      __HAL_RCC_PLLSAI_CONFIG(PeriphClkInit->PLLSAI.PLLSAIN , tmpreg0, PeriphClkInit->PLLSAI.PLLSAIQ, tmpreg1);
 8002fa8:	6960      	ldr	r0, [r4, #20]
 8002faa:	f403 3340 	and.w	r3, r3, #196608	; 0x30000
 8002fae:	ea43 1380 	orr.w	r3, r3, r0, lsl #6
 8002fb2:	69a0      	ldr	r0, [r4, #24]
 8002fb4:	ea43 6300 	orr.w	r3, r3, r0, lsl #24
 8002fb8:	f001 41e0 	and.w	r1, r1, #1879048192	; 0x70000000
 8002fbc:	430b      	orrs	r3, r1
 8002fbe:	f8c2 3088 	str.w	r3, [r2, #136]	; 0x88
      __HAL_RCC_PLLSAI_PLLSAICLKDIVQ_CONFIG(PeriphClkInit->PLLSAIDivQ);
 8002fc2:	f8d2 308c 	ldr.w	r3, [r2, #140]	; 0x8c
 8002fc6:	f423 53f8 	bic.w	r3, r3, #7936	; 0x1f00
 8002fca:	6aa1      	ldr	r1, [r4, #40]	; 0x28
 8002fcc:	3901      	subs	r1, #1
 8002fce:	ea43 2301 	orr.w	r3, r3, r1, lsl #8
 8002fd2:	f8c2 308c 	str.w	r3, [r2, #140]	; 0x8c
    if((((PeriphClkInit->PeriphClockSelection) & RCC_PERIPHCLK_CLK48) == RCC_PERIPHCLK_CLK48) && (PeriphClkInit->Clk48ClockSelection == RCC_CLK48SOURCE_PLLSAIP))
 8002fd6:	6823      	ldr	r3, [r4, #0]
 8002fd8:	f413 1f00 	tst.w	r3, #2097152	; 0x200000
 8002fdc:	d003      	beq.n	8002fe6 <HAL_RCCEx_PeriphCLKConfig+0x50e>
 8002fde:	6fe3      	ldr	r3, [r4, #124]	; 0x7c
 8002fe0:	f1b3 6f00 	cmp.w	r3, #134217728	; 0x8000000
 8002fe4:	d031      	beq.n	800304a <HAL_RCCEx_PeriphCLKConfig+0x572>
    if(((PeriphClkInit->PeriphClockSelection) & RCC_PERIPHCLK_LTDC) == (RCC_PERIPHCLK_LTDC))
 8002fe6:	6823      	ldr	r3, [r4, #0]
 8002fe8:	f013 0f08 	tst.w	r3, #8
 8002fec:	d019      	beq.n	8003022 <HAL_RCCEx_PeriphCLKConfig+0x54a>
      tmpreg0 = ((RCC->PLLSAICFGR & RCC_PLLSAICFGR_PLLSAIQ) >> RCC_PLLSAICFGR_PLLSAIQ_Pos);
 8002fee:	4a21      	ldr	r2, [pc, #132]	; (8003074 <HAL_RCCEx_PeriphCLKConfig+0x59c>)
 8002ff0:	f8d2 1088 	ldr.w	r1, [r2, #136]	; 0x88
      tmpreg1 = ((RCC->PLLSAICFGR & RCC_PLLSAICFGR_PLLSAIP) >> RCC_PLLSAICFGR_PLLSAIP_Pos);
 8002ff4:	f8d2 3088 	ldr.w	r3, [r2, #136]	; 0x88
      __HAL_RCC_PLLSAI_CONFIG(PeriphClkInit->PLLSAI.PLLSAIN , tmpreg1, tmpreg0, PeriphClkInit->PLLSAI.PLLSAIR);
 8002ff8:	6960      	ldr	r0, [r4, #20]
 8002ffa:	f403 3340 	and.w	r3, r3, #196608	; 0x30000
 8002ffe:	ea43 1380 	orr.w	r3, r3, r0, lsl #6
 8003002:	f001 6170 	and.w	r1, r1, #251658240	; 0xf000000
 8003006:	430b      	orrs	r3, r1
 8003008:	69e1      	ldr	r1, [r4, #28]
 800300a:	ea43 7301 	orr.w	r3, r3, r1, lsl #28
 800300e:	f8c2 3088 	str.w	r3, [r2, #136]	; 0x88
      __HAL_RCC_PLLSAI_PLLSAICLKDIVR_CONFIG(PeriphClkInit->PLLSAIDivR);
 8003012:	f8d2 308c 	ldr.w	r3, [r2, #140]	; 0x8c
 8003016:	f423 3340 	bic.w	r3, r3, #196608	; 0x30000
 800301a:	6ae1      	ldr	r1, [r4, #44]	; 0x2c
 800301c:	430b      	orrs	r3, r1
 800301e:	f8c2 308c 	str.w	r3, [r2, #140]	; 0x8c
    __HAL_RCC_PLLSAI_ENABLE();
 8003022:	4a14      	ldr	r2, [pc, #80]	; (8003074 <HAL_RCCEx_PeriphCLKConfig+0x59c>)
 8003024:	6813      	ldr	r3, [r2, #0]
 8003026:	f043 5380 	orr.w	r3, r3, #268435456	; 0x10000000
 800302a:	6013      	str	r3, [r2, #0]
    tickstart = HAL_GetTick();
 800302c:	f7fe fc20 	bl	8001870 <HAL_GetTick>
 8003030:	4604      	mov	r4, r0
    while(__HAL_RCC_PLLSAI_GET_FLAG() == RESET)
 8003032:	4b10      	ldr	r3, [pc, #64]	; (8003074 <HAL_RCCEx_PeriphCLKConfig+0x59c>)
 8003034:	681b      	ldr	r3, [r3, #0]
 8003036:	f013 5f00 	tst.w	r3, #536870912	; 0x20000000
 800303a:	d119      	bne.n	8003070 <HAL_RCCEx_PeriphCLKConfig+0x598>
      if((HAL_GetTick() - tickstart) > PLLSAI_TIMEOUT_VALUE)
 800303c:	f7fe fc18 	bl	8001870 <HAL_GetTick>
 8003040:	1b00      	subs	r0, r0, r4
 8003042:	2864      	cmp	r0, #100	; 0x64
 8003044:	d9f5      	bls.n	8003032 <HAL_RCCEx_PeriphCLKConfig+0x55a>
        return HAL_TIMEOUT;
 8003046:	2003      	movs	r0, #3
 8003048:	e788      	b.n	8002f5c <HAL_RCCEx_PeriphCLKConfig+0x484>
      tmpreg0 = ((RCC->PLLSAICFGR & RCC_PLLSAICFGR_PLLSAIQ) >> RCC_PLLSAICFGR_PLLSAIQ_Pos);
 800304a:	4a0a      	ldr	r2, [pc, #40]	; (8003074 <HAL_RCCEx_PeriphCLKConfig+0x59c>)
 800304c:	f8d2 0088 	ldr.w	r0, [r2, #136]	; 0x88
      tmpreg1 = ((RCC->PLLSAICFGR & RCC_PLLSAICFGR_PLLSAIR) >> RCC_PLLSAICFGR_PLLSAIR_Pos);
 8003050:	f8d2 1088 	ldr.w	r1, [r2, #136]	; 0x88
      __HAL_RCC_PLLSAI_CONFIG(PeriphClkInit->PLLSAI.PLLSAIN , PeriphClkInit->PLLSAI.PLLSAIP, tmpreg0, tmpreg1);
 8003054:	6965      	ldr	r5, [r4, #20]
 8003056:	6a23      	ldr	r3, [r4, #32]
 8003058:	041b      	lsls	r3, r3, #16
 800305a:	ea43 1385 	orr.w	r3, r3, r5, lsl #6
 800305e:	f000 6070 	and.w	r0, r0, #251658240	; 0xf000000
 8003062:	4303      	orrs	r3, r0
 8003064:	f001 41e0 	and.w	r1, r1, #1879048192	; 0x70000000
 8003068:	430b      	orrs	r3, r1
 800306a:	f8c2 3088 	str.w	r3, [r2, #136]	; 0x88
 800306e:	e7ba      	b.n	8002fe6 <HAL_RCCEx_PeriphCLKConfig+0x50e>
  return HAL_OK;
 8003070:	2000      	movs	r0, #0
 8003072:	e773      	b.n	8002f5c <HAL_RCCEx_PeriphCLKConfig+0x484>
 8003074:	40023800 	.word	0x40023800
 8003078:	0ffffcff 	.word	0x0ffffcff

0800307c <HAL_RTC_WaitForSynchro>:
  * @param  hrtc pointer to a RTC_HandleTypeDef structure that contains
  *                the configuration information for RTC.
  * @retval HAL status
  */
HAL_StatusTypeDef HAL_RTC_WaitForSynchro(RTC_HandleTypeDef* hrtc)
{
 800307c:	b538      	push	{r3, r4, r5, lr}
 800307e:	4604      	mov	r4, r0
  uint32_t tickstart = 0;

  /* Clear RSF flag */
  hrtc->Instance->ISR &= (uint32_t)RTC_RSF_MASK;
 8003080:	6802      	ldr	r2, [r0, #0]
 8003082:	68d3      	ldr	r3, [r2, #12]
 8003084:	f023 03a0 	bic.w	r3, r3, #160	; 0xa0
 8003088:	60d3      	str	r3, [r2, #12]

    /* Get tick */
    tickstart = HAL_GetTick();
 800308a:	f7fe fbf1 	bl	8001870 <HAL_GetTick>
 800308e:	4605      	mov	r5, r0

  /* Wait the registers to be synchronised */
  while((hrtc->Instance->ISR & RTC_ISR_RSF) == (uint32_t)RESET)
 8003090:	6823      	ldr	r3, [r4, #0]
 8003092:	68db      	ldr	r3, [r3, #12]
 8003094:	f013 0f20 	tst.w	r3, #32
 8003098:	d107      	bne.n	80030aa <HAL_RTC_WaitForSynchro+0x2e>
  {
    if((HAL_GetTick() - tickstart ) > RTC_TIMEOUT_VALUE)
 800309a:	f7fe fbe9 	bl	8001870 <HAL_GetTick>
 800309e:	1b40      	subs	r0, r0, r5
 80030a0:	f5b0 7f7a 	cmp.w	r0, #1000	; 0x3e8
 80030a4:	d9f4      	bls.n	8003090 <HAL_RTC_WaitForSynchro+0x14>
    {
      return HAL_TIMEOUT;
 80030a6:	2003      	movs	r0, #3
 80030a8:	e000      	b.n	80030ac <HAL_RTC_WaitForSynchro+0x30>
    }
  }

  return HAL_OK;
 80030aa:	2000      	movs	r0, #0
}
 80030ac:	bd38      	pop	{r3, r4, r5, pc}

080030ae <RTC_EnterInitMode>:
  * @param  hrtc pointer to a RTC_HandleTypeDef structure that contains
  *                the configuration information for RTC.
  * @retval HAL status
  */
HAL_StatusTypeDef RTC_EnterInitMode(RTC_HandleTypeDef* hrtc)
{
 80030ae:	b538      	push	{r3, r4, r5, lr}
  uint32_t tickstart = 0;

  /* Check if the Initialization mode is set */
  if((hrtc->Instance->ISR & RTC_ISR_INITF) == (uint32_t)RESET)
 80030b0:	6803      	ldr	r3, [r0, #0]
 80030b2:	68da      	ldr	r2, [r3, #12]
 80030b4:	f012 0f40 	tst.w	r2, #64	; 0x40
 80030b8:	d001      	beq.n	80030be <RTC_EnterInitMode+0x10>
        return HAL_TIMEOUT;
      }
    }
  }

  return HAL_OK;
 80030ba:	2000      	movs	r0, #0
}
 80030bc:	bd38      	pop	{r3, r4, r5, pc}
 80030be:	4604      	mov	r4, r0
    hrtc->Instance->ISR = (uint32_t)RTC_INIT_MASK;
 80030c0:	f04f 32ff 	mov.w	r2, #4294967295
 80030c4:	60da      	str	r2, [r3, #12]
    tickstart = HAL_GetTick();
 80030c6:	f7fe fbd3 	bl	8001870 <HAL_GetTick>
 80030ca:	4605      	mov	r5, r0
    while((hrtc->Instance->ISR & RTC_ISR_INITF) == (uint32_t)RESET)
 80030cc:	6823      	ldr	r3, [r4, #0]
 80030ce:	68db      	ldr	r3, [r3, #12]
 80030d0:	f013 0f40 	tst.w	r3, #64	; 0x40
 80030d4:	d107      	bne.n	80030e6 <RTC_EnterInitMode+0x38>
      if((HAL_GetTick() - tickstart ) > RTC_TIMEOUT_VALUE)
 80030d6:	f7fe fbcb 	bl	8001870 <HAL_GetTick>
 80030da:	1b40      	subs	r0, r0, r5
 80030dc:	f5b0 7f7a 	cmp.w	r0, #1000	; 0x3e8
 80030e0:	d9f4      	bls.n	80030cc <RTC_EnterInitMode+0x1e>
        return HAL_TIMEOUT;
 80030e2:	2003      	movs	r0, #3
 80030e4:	e7ea      	b.n	80030bc <RTC_EnterInitMode+0xe>
  return HAL_OK;
 80030e6:	2000      	movs	r0, #0
 80030e8:	e7e8      	b.n	80030bc <RTC_EnterInitMode+0xe>
	...

080030ec <HAL_RTC_Init>:
{
 80030ec:	b538      	push	{r3, r4, r5, lr}
  if(hrtc == NULL)
 80030ee:	2800      	cmp	r0, #0
 80030f0:	d05a      	beq.n	80031a8 <HAL_RTC_Init+0xbc>
 80030f2:	4604      	mov	r4, r0
  if(hrtc->State == HAL_RTC_STATE_RESET)
 80030f4:	7f43      	ldrb	r3, [r0, #29]
 80030f6:	2b00      	cmp	r3, #0
 80030f8:	d03e      	beq.n	8003178 <HAL_RTC_Init+0x8c>
  hrtc->State = HAL_RTC_STATE_BUSY;
 80030fa:	2302      	movs	r3, #2
 80030fc:	7763      	strb	r3, [r4, #29]
  __HAL_RTC_WRITEPROTECTION_DISABLE(hrtc);
 80030fe:	6823      	ldr	r3, [r4, #0]
 8003100:	22ca      	movs	r2, #202	; 0xca
 8003102:	625a      	str	r2, [r3, #36]	; 0x24
 8003104:	6823      	ldr	r3, [r4, #0]
 8003106:	2253      	movs	r2, #83	; 0x53
 8003108:	625a      	str	r2, [r3, #36]	; 0x24
  if(RTC_EnterInitMode(hrtc) != HAL_OK)
 800310a:	4620      	mov	r0, r4
 800310c:	f7ff ffcf 	bl	80030ae <RTC_EnterInitMode>
 8003110:	4605      	mov	r5, r0
 8003112:	2800      	cmp	r0, #0
 8003114:	d134      	bne.n	8003180 <HAL_RTC_Init+0x94>
    hrtc->Instance->CR &= ((uint32_t)~(RTC_CR_FMT | RTC_CR_OSEL | RTC_CR_POL));
 8003116:	6822      	ldr	r2, [r4, #0]
 8003118:	6891      	ldr	r1, [r2, #8]
 800311a:	4b24      	ldr	r3, [pc, #144]	; (80031ac <HAL_RTC_Init+0xc0>)
 800311c:	400b      	ands	r3, r1
 800311e:	6093      	str	r3, [r2, #8]
    hrtc->Instance->CR |= (uint32_t)(hrtc->Init.HourFormat | hrtc->Init.OutPut | hrtc->Init.OutPutPolarity);
 8003120:	6821      	ldr	r1, [r4, #0]
 8003122:	688a      	ldr	r2, [r1, #8]
 8003124:	6863      	ldr	r3, [r4, #4]
 8003126:	6920      	ldr	r0, [r4, #16]
 8003128:	4303      	orrs	r3, r0
 800312a:	6960      	ldr	r0, [r4, #20]
 800312c:	4303      	orrs	r3, r0
 800312e:	4313      	orrs	r3, r2
 8003130:	608b      	str	r3, [r1, #8]
    hrtc->Instance->PRER = (uint32_t)(hrtc->Init.SynchPrediv);
 8003132:	6823      	ldr	r3, [r4, #0]
 8003134:	68e2      	ldr	r2, [r4, #12]
 8003136:	611a      	str	r2, [r3, #16]
    hrtc->Instance->PRER |= (uint32_t)(hrtc->Init.AsynchPrediv << 16);
 8003138:	6822      	ldr	r2, [r4, #0]
 800313a:	6913      	ldr	r3, [r2, #16]
 800313c:	68a1      	ldr	r1, [r4, #8]
 800313e:	ea43 4301 	orr.w	r3, r3, r1, lsl #16
 8003142:	6113      	str	r3, [r2, #16]
    hrtc->Instance->ISR &= (uint32_t)~RTC_ISR_INIT;
 8003144:	6822      	ldr	r2, [r4, #0]
 8003146:	68d3      	ldr	r3, [r2, #12]
 8003148:	f023 0380 	bic.w	r3, r3, #128	; 0x80
 800314c:	60d3      	str	r3, [r2, #12]
    if((hrtc->Instance->CR & RTC_CR_BYPSHAD) == RESET)
 800314e:	6823      	ldr	r3, [r4, #0]
 8003150:	689b      	ldr	r3, [r3, #8]
 8003152:	f013 0f20 	tst.w	r3, #32
 8003156:	d01b      	beq.n	8003190 <HAL_RTC_Init+0xa4>
    hrtc->Instance->OR &= (uint32_t)~RTC_OR_ALARMTYPE;
 8003158:	6822      	ldr	r2, [r4, #0]
 800315a:	6cd3      	ldr	r3, [r2, #76]	; 0x4c
 800315c:	f023 0308 	bic.w	r3, r3, #8
 8003160:	64d3      	str	r3, [r2, #76]	; 0x4c
    hrtc->Instance->OR |= (uint32_t)(hrtc->Init.OutPutType);
 8003162:	6822      	ldr	r2, [r4, #0]
 8003164:	6cd3      	ldr	r3, [r2, #76]	; 0x4c
 8003166:	69a1      	ldr	r1, [r4, #24]
 8003168:	430b      	orrs	r3, r1
 800316a:	64d3      	str	r3, [r2, #76]	; 0x4c
    __HAL_RTC_WRITEPROTECTION_ENABLE(hrtc);
 800316c:	6823      	ldr	r3, [r4, #0]
 800316e:	22ff      	movs	r2, #255	; 0xff
 8003170:	625a      	str	r2, [r3, #36]	; 0x24
    hrtc->State = HAL_RTC_STATE_READY;
 8003172:	2301      	movs	r3, #1
 8003174:	7763      	strb	r3, [r4, #29]
    return HAL_OK;
 8003176:	e009      	b.n	800318c <HAL_RTC_Init+0xa0>
    hrtc->Lock = HAL_UNLOCKED;
 8003178:	7703      	strb	r3, [r0, #28]
    HAL_RTC_MspInit(hrtc);
 800317a:	f7fe fab3 	bl	80016e4 <HAL_RTC_MspInit>
 800317e:	e7bc      	b.n	80030fa <HAL_RTC_Init+0xe>
    __HAL_RTC_WRITEPROTECTION_ENABLE(hrtc);
 8003180:	6823      	ldr	r3, [r4, #0]
 8003182:	22ff      	movs	r2, #255	; 0xff
 8003184:	625a      	str	r2, [r3, #36]	; 0x24
    hrtc->State = HAL_RTC_STATE_ERROR;
 8003186:	2304      	movs	r3, #4
 8003188:	7763      	strb	r3, [r4, #29]
    return HAL_ERROR;
 800318a:	2501      	movs	r5, #1
}
 800318c:	4628      	mov	r0, r5
 800318e:	bd38      	pop	{r3, r4, r5, pc}
      if(HAL_RTC_WaitForSynchro(hrtc) != HAL_OK)
 8003190:	4620      	mov	r0, r4
 8003192:	f7ff ff73 	bl	800307c <HAL_RTC_WaitForSynchro>
 8003196:	2800      	cmp	r0, #0
 8003198:	d0de      	beq.n	8003158 <HAL_RTC_Init+0x6c>
        __HAL_RTC_WRITEPROTECTION_ENABLE(hrtc);
 800319a:	6823      	ldr	r3, [r4, #0]
 800319c:	22ff      	movs	r2, #255	; 0xff
 800319e:	625a      	str	r2, [r3, #36]	; 0x24
        hrtc->State = HAL_RTC_STATE_ERROR;
 80031a0:	2304      	movs	r3, #4
 80031a2:	7763      	strb	r3, [r4, #29]
        return HAL_ERROR;
 80031a4:	2501      	movs	r5, #1
 80031a6:	e7f1      	b.n	800318c <HAL_RTC_Init+0xa0>
     return HAL_ERROR;
 80031a8:	2501      	movs	r5, #1
 80031aa:	e7ef      	b.n	800318c <HAL_RTC_Init+0xa0>
 80031ac:	ff8fffbf 	.word	0xff8fffbf

080031b0 <RTC_ByteToBcd2>:
  * @param  Value Byte to be converted
  * @retval Converted byte
  */
uint8_t RTC_ByteToBcd2(uint8_t Value)
{
  uint32_t bcdhigh = 0;
 80031b0:	2300      	movs	r3, #0

  while(Value >= 10)
 80031b2:	e002      	b.n	80031ba <RTC_ByteToBcd2+0xa>
  {
    bcdhigh++;
 80031b4:	3301      	adds	r3, #1
    Value -= 10;
 80031b6:	380a      	subs	r0, #10
 80031b8:	b2c0      	uxtb	r0, r0
  while(Value >= 10)
 80031ba:	2809      	cmp	r0, #9
 80031bc:	d8fa      	bhi.n	80031b4 <RTC_ByteToBcd2+0x4>
  }

  return  ((uint8_t)(bcdhigh << 4) | Value);
 80031be:	011b      	lsls	r3, r3, #4
 80031c0:	b2db      	uxtb	r3, r3
}
 80031c2:	4318      	orrs	r0, r3
 80031c4:	4770      	bx	lr
	...

080031c8 <HAL_RTC_SetTime>:
{
 80031c8:	b5f8      	push	{r3, r4, r5, r6, r7, lr}
  __HAL_LOCK(hrtc);
 80031ca:	7f03      	ldrb	r3, [r0, #28]
 80031cc:	2b01      	cmp	r3, #1
 80031ce:	d076      	beq.n	80032be <HAL_RTC_SetTime+0xf6>
 80031d0:	460d      	mov	r5, r1
 80031d2:	4604      	mov	r4, r0
 80031d4:	2301      	movs	r3, #1
 80031d6:	7703      	strb	r3, [r0, #28]
  hrtc->State = HAL_RTC_STATE_BUSY;
 80031d8:	2302      	movs	r3, #2
 80031da:	7743      	strb	r3, [r0, #29]
  if(Format == RTC_FORMAT_BIN)
 80031dc:	2a00      	cmp	r2, #0
 80031de:	d144      	bne.n	800326a <HAL_RTC_SetTime+0xa2>
    if((hrtc->Instance->CR & RTC_CR_FMT) != (uint32_t)RESET)
 80031e0:	6803      	ldr	r3, [r0, #0]
 80031e2:	689b      	ldr	r3, [r3, #8]
 80031e4:	f013 0f40 	tst.w	r3, #64	; 0x40
 80031e8:	d101      	bne.n	80031ee <HAL_RTC_SetTime+0x26>
      sTime->TimeFormat = 0x00;
 80031ea:	2300      	movs	r3, #0
 80031ec:	730b      	strb	r3, [r1, #12]
    tmpreg = (uint32_t)(((uint32_t)RTC_ByteToBcd2(sTime->Hours) << 16) | \
 80031ee:	7828      	ldrb	r0, [r5, #0]
 80031f0:	f7ff ffde 	bl	80031b0 <RTC_ByteToBcd2>
 80031f4:	0406      	lsls	r6, r0, #16
                        ((uint32_t)RTC_ByteToBcd2(sTime->Minutes) << 8) | \
 80031f6:	7868      	ldrb	r0, [r5, #1]
 80031f8:	f7ff ffda 	bl	80031b0 <RTC_ByteToBcd2>
    tmpreg = (uint32_t)(((uint32_t)RTC_ByteToBcd2(sTime->Hours) << 16) | \
 80031fc:	ea46 2600 	orr.w	r6, r6, r0, lsl #8
                        ((uint32_t)RTC_ByteToBcd2(sTime->Seconds)) | \
 8003200:	78a8      	ldrb	r0, [r5, #2]
 8003202:	f7ff ffd5 	bl	80031b0 <RTC_ByteToBcd2>
                        ((uint32_t)RTC_ByteToBcd2(sTime->Minutes) << 8) | \
 8003206:	4306      	orrs	r6, r0
                        (((uint32_t)sTime->TimeFormat) << 16));
 8003208:	7b28      	ldrb	r0, [r5, #12]
    tmpreg = (uint32_t)(((uint32_t)RTC_ByteToBcd2(sTime->Hours) << 16) | \
 800320a:	ea46 4600 	orr.w	r6, r6, r0, lsl #16
  __HAL_RTC_WRITEPROTECTION_DISABLE(hrtc);
 800320e:	6823      	ldr	r3, [r4, #0]
 8003210:	22ca      	movs	r2, #202	; 0xca
 8003212:	625a      	str	r2, [r3, #36]	; 0x24
 8003214:	6823      	ldr	r3, [r4, #0]
 8003216:	2253      	movs	r2, #83	; 0x53
 8003218:	625a      	str	r2, [r3, #36]	; 0x24
  if(RTC_EnterInitMode(hrtc) != HAL_OK)
 800321a:	4620      	mov	r0, r4
 800321c:	f7ff ff47 	bl	80030ae <RTC_EnterInitMode>
 8003220:	4607      	mov	r7, r0
 8003222:	2800      	cmp	r0, #0
 8003224:	d133      	bne.n	800328e <HAL_RTC_SetTime+0xc6>
    hrtc->Instance->TR = (uint32_t)(tmpreg & RTC_TR_RESERVED_MASK);
 8003226:	6822      	ldr	r2, [r4, #0]
 8003228:	4b26      	ldr	r3, [pc, #152]	; (80032c4 <HAL_RTC_SetTime+0xfc>)
 800322a:	4033      	ands	r3, r6
 800322c:	6013      	str	r3, [r2, #0]
    hrtc->Instance->CR &= (uint32_t)~RTC_CR_BKP;
 800322e:	6822      	ldr	r2, [r4, #0]
 8003230:	6893      	ldr	r3, [r2, #8]
 8003232:	f423 2380 	bic.w	r3, r3, #262144	; 0x40000
 8003236:	6093      	str	r3, [r2, #8]
    hrtc->Instance->CR |= (uint32_t)(sTime->DayLightSaving | sTime->StoreOperation);
 8003238:	6821      	ldr	r1, [r4, #0]
 800323a:	688b      	ldr	r3, [r1, #8]
 800323c:	692a      	ldr	r2, [r5, #16]
 800323e:	6968      	ldr	r0, [r5, #20]
 8003240:	4302      	orrs	r2, r0
 8003242:	4313      	orrs	r3, r2
 8003244:	608b      	str	r3, [r1, #8]
    hrtc->Instance->ISR &= (uint32_t)~RTC_ISR_INIT;
 8003246:	6822      	ldr	r2, [r4, #0]
 8003248:	68d3      	ldr	r3, [r2, #12]
 800324a:	f023 0380 	bic.w	r3, r3, #128	; 0x80
 800324e:	60d3      	str	r3, [r2, #12]
    if((hrtc->Instance->CR & RTC_CR_BYPSHAD) == RESET)
 8003250:	6823      	ldr	r3, [r4, #0]
 8003252:	689b      	ldr	r3, [r3, #8]
 8003254:	f013 0f20 	tst.w	r3, #32
 8003258:	d023      	beq.n	80032a2 <HAL_RTC_SetTime+0xda>
    __HAL_RTC_WRITEPROTECTION_ENABLE(hrtc);
 800325a:	6823      	ldr	r3, [r4, #0]
 800325c:	22ff      	movs	r2, #255	; 0xff
 800325e:	625a      	str	r2, [r3, #36]	; 0x24
   hrtc->State = HAL_RTC_STATE_READY;
 8003260:	2301      	movs	r3, #1
 8003262:	7763      	strb	r3, [r4, #29]
   __HAL_UNLOCK(hrtc);
 8003264:	2300      	movs	r3, #0
 8003266:	7723      	strb	r3, [r4, #28]
   return HAL_OK;
 8003268:	e019      	b.n	800329e <HAL_RTC_SetTime+0xd6>
    if((hrtc->Instance->CR & RTC_CR_FMT) != (uint32_t)RESET)
 800326a:	6803      	ldr	r3, [r0, #0]
 800326c:	689b      	ldr	r3, [r3, #8]
 800326e:	f013 0f40 	tst.w	r3, #64	; 0x40
 8003272:	d101      	bne.n	8003278 <HAL_RTC_SetTime+0xb0>
      sTime->TimeFormat = 0x00;
 8003274:	2300      	movs	r3, #0
 8003276:	730b      	strb	r3, [r1, #12]
    tmpreg = (((uint32_t)(sTime->Hours) << 16) | \
 8003278:	7828      	ldrb	r0, [r5, #0]
              ((uint32_t)(sTime->Minutes) << 8) | \
 800327a:	786e      	ldrb	r6, [r5, #1]
 800327c:	0236      	lsls	r6, r6, #8
    tmpreg = (((uint32_t)(sTime->Hours) << 16) | \
 800327e:	ea46 4600 	orr.w	r6, r6, r0, lsl #16
              ((uint32_t)sTime->Seconds) | \
 8003282:	78a8      	ldrb	r0, [r5, #2]
              ((uint32_t)(sTime->Minutes) << 8) | \
 8003284:	4306      	orrs	r6, r0
              ((uint32_t)(sTime->TimeFormat) << 16));
 8003286:	7b28      	ldrb	r0, [r5, #12]
    tmpreg = (((uint32_t)(sTime->Hours) << 16) | \
 8003288:	ea46 4600 	orr.w	r6, r6, r0, lsl #16
 800328c:	e7bf      	b.n	800320e <HAL_RTC_SetTime+0x46>
    __HAL_RTC_WRITEPROTECTION_ENABLE(hrtc);
 800328e:	6823      	ldr	r3, [r4, #0]
 8003290:	22ff      	movs	r2, #255	; 0xff
 8003292:	625a      	str	r2, [r3, #36]	; 0x24
    hrtc->State = HAL_RTC_STATE_ERROR;
 8003294:	2304      	movs	r3, #4
 8003296:	7763      	strb	r3, [r4, #29]
    __HAL_UNLOCK(hrtc);
 8003298:	2300      	movs	r3, #0
 800329a:	7723      	strb	r3, [r4, #28]
    return HAL_ERROR;
 800329c:	2701      	movs	r7, #1
}
 800329e:	4638      	mov	r0, r7
 80032a0:	bdf8      	pop	{r3, r4, r5, r6, r7, pc}
      if(HAL_RTC_WaitForSynchro(hrtc) != HAL_OK)
 80032a2:	4620      	mov	r0, r4
 80032a4:	f7ff feea 	bl	800307c <HAL_RTC_WaitForSynchro>
 80032a8:	2800      	cmp	r0, #0
 80032aa:	d0d6      	beq.n	800325a <HAL_RTC_SetTime+0x92>
        __HAL_RTC_WRITEPROTECTION_ENABLE(hrtc);
 80032ac:	6823      	ldr	r3, [r4, #0]
 80032ae:	22ff      	movs	r2, #255	; 0xff
 80032b0:	625a      	str	r2, [r3, #36]	; 0x24
        hrtc->State = HAL_RTC_STATE_ERROR;
 80032b2:	2304      	movs	r3, #4
 80032b4:	7763      	strb	r3, [r4, #29]
        __HAL_UNLOCK(hrtc);
 80032b6:	2300      	movs	r3, #0
 80032b8:	7723      	strb	r3, [r4, #28]
        return HAL_ERROR;
 80032ba:	2701      	movs	r7, #1
 80032bc:	e7ef      	b.n	800329e <HAL_RTC_SetTime+0xd6>
  __HAL_LOCK(hrtc);
 80032be:	2702      	movs	r7, #2
 80032c0:	e7ed      	b.n	800329e <HAL_RTC_SetTime+0xd6>
 80032c2:	bf00      	nop
 80032c4:	007f7f7f 	.word	0x007f7f7f

080032c8 <HAL_RTC_SetDate>:
{
 80032c8:	b570      	push	{r4, r5, r6, lr}
 __HAL_LOCK(hrtc);
 80032ca:	7f03      	ldrb	r3, [r0, #28]
 80032cc:	2b01      	cmp	r3, #1
 80032ce:	d064      	beq.n	800339a <HAL_RTC_SetDate+0xd2>
 80032d0:	2301      	movs	r3, #1
 80032d2:	7703      	strb	r3, [r0, #28]
  hrtc->State = HAL_RTC_STATE_BUSY;
 80032d4:	2302      	movs	r3, #2
 80032d6:	7743      	strb	r3, [r0, #29]
  if((Format == RTC_FORMAT_BIN) && ((sDate->Month & 0x10U) == 0x10U))
 80032d8:	b93a      	cbnz	r2, 80032ea <HAL_RTC_SetDate+0x22>
 80032da:	784b      	ldrb	r3, [r1, #1]
 80032dc:	f013 0f10 	tst.w	r3, #16
 80032e0:	d003      	beq.n	80032ea <HAL_RTC_SetDate+0x22>
    sDate->Month = (uint8_t)((sDate->Month & (uint8_t)~(0x10U)) + (uint8_t)0x0AU);
 80032e2:	f003 03ef 	and.w	r3, r3, #239	; 0xef
 80032e6:	330a      	adds	r3, #10
 80032e8:	704b      	strb	r3, [r1, #1]
 80032ea:	460e      	mov	r6, r1
 80032ec:	4604      	mov	r4, r0
  if(Format == RTC_FORMAT_BIN)
 80032ee:	2a00      	cmp	r2, #0
 80032f0:	d130      	bne.n	8003354 <HAL_RTC_SetDate+0x8c>
   datetmpreg = (((uint32_t)RTC_ByteToBcd2(sDate->Year) << 16) | \
 80032f2:	78c8      	ldrb	r0, [r1, #3]
 80032f4:	f7ff ff5c 	bl	80031b0 <RTC_ByteToBcd2>
 80032f8:	0405      	lsls	r5, r0, #16
                 ((uint32_t)RTC_ByteToBcd2(sDate->Month) << 8) | \
 80032fa:	7870      	ldrb	r0, [r6, #1]
 80032fc:	f7ff ff58 	bl	80031b0 <RTC_ByteToBcd2>
   datetmpreg = (((uint32_t)RTC_ByteToBcd2(sDate->Year) << 16) | \
 8003300:	ea45 2500 	orr.w	r5, r5, r0, lsl #8
                 ((uint32_t)RTC_ByteToBcd2(sDate->Date)) | \
 8003304:	78b0      	ldrb	r0, [r6, #2]
 8003306:	f7ff ff53 	bl	80031b0 <RTC_ByteToBcd2>
                 ((uint32_t)RTC_ByteToBcd2(sDate->Month) << 8) | \
 800330a:	4305      	orrs	r5, r0
                 ((uint32_t)sDate->WeekDay << 13));
 800330c:	7830      	ldrb	r0, [r6, #0]
   datetmpreg = (((uint32_t)RTC_ByteToBcd2(sDate->Year) << 16) | \
 800330e:	ea45 3540 	orr.w	r5, r5, r0, lsl #13
  __HAL_RTC_WRITEPROTECTION_DISABLE(hrtc);
 8003312:	6823      	ldr	r3, [r4, #0]
 8003314:	22ca      	movs	r2, #202	; 0xca
 8003316:	625a      	str	r2, [r3, #36]	; 0x24
 8003318:	6823      	ldr	r3, [r4, #0]
 800331a:	2253      	movs	r2, #83	; 0x53
 800331c:	625a      	str	r2, [r3, #36]	; 0x24
  if(RTC_EnterInitMode(hrtc) != HAL_OK)
 800331e:	4620      	mov	r0, r4
 8003320:	f7ff fec5 	bl	80030ae <RTC_EnterInitMode>
 8003324:	4606      	mov	r6, r0
 8003326:	bb00      	cbnz	r0, 800336a <HAL_RTC_SetDate+0xa2>
    hrtc->Instance->DR = (uint32_t)(datetmpreg & RTC_DR_RESERVED_MASK);
 8003328:	6822      	ldr	r2, [r4, #0]
 800332a:	4b1d      	ldr	r3, [pc, #116]	; (80033a0 <HAL_RTC_SetDate+0xd8>)
 800332c:	402b      	ands	r3, r5
 800332e:	6053      	str	r3, [r2, #4]
    hrtc->Instance->ISR &= (uint32_t)~RTC_ISR_INIT;
 8003330:	6822      	ldr	r2, [r4, #0]
 8003332:	68d3      	ldr	r3, [r2, #12]
 8003334:	f023 0380 	bic.w	r3, r3, #128	; 0x80
 8003338:	60d3      	str	r3, [r2, #12]
    if((hrtc->Instance->CR & RTC_CR_BYPSHAD) == RESET)
 800333a:	6823      	ldr	r3, [r4, #0]
 800333c:	689b      	ldr	r3, [r3, #8]
 800333e:	f013 0f20 	tst.w	r3, #32
 8003342:	d01c      	beq.n	800337e <HAL_RTC_SetDate+0xb6>
    __HAL_RTC_WRITEPROTECTION_ENABLE(hrtc);
 8003344:	6823      	ldr	r3, [r4, #0]
 8003346:	22ff      	movs	r2, #255	; 0xff
 8003348:	625a      	str	r2, [r3, #36]	; 0x24
    hrtc->State = HAL_RTC_STATE_READY ;
 800334a:	2301      	movs	r3, #1
 800334c:	7763      	strb	r3, [r4, #29]
    __HAL_UNLOCK(hrtc);
 800334e:	2300      	movs	r3, #0
 8003350:	7723      	strb	r3, [r4, #28]
    return HAL_OK;
 8003352:	e012      	b.n	800337a <HAL_RTC_SetDate+0xb2>
    datetmpreg = ((((uint32_t)sDate->Year) << 16) | \
 8003354:	78c8      	ldrb	r0, [r1, #3]
                  (((uint32_t)sDate->Month) << 8) | \
 8003356:	784d      	ldrb	r5, [r1, #1]
 8003358:	022d      	lsls	r5, r5, #8
    datetmpreg = ((((uint32_t)sDate->Year) << 16) | \
 800335a:	ea45 4500 	orr.w	r5, r5, r0, lsl #16
                  ((uint32_t)sDate->Date) | \
 800335e:	7888      	ldrb	r0, [r1, #2]
                  (((uint32_t)sDate->Month) << 8) | \
 8003360:	4305      	orrs	r5, r0
                  (((uint32_t)sDate->WeekDay) << 13));
 8003362:	7808      	ldrb	r0, [r1, #0]
    datetmpreg = ((((uint32_t)sDate->Year) << 16) | \
 8003364:	ea45 3540 	orr.w	r5, r5, r0, lsl #13
 8003368:	e7d3      	b.n	8003312 <HAL_RTC_SetDate+0x4a>
    __HAL_RTC_WRITEPROTECTION_ENABLE(hrtc);
 800336a:	6823      	ldr	r3, [r4, #0]
 800336c:	22ff      	movs	r2, #255	; 0xff
 800336e:	625a      	str	r2, [r3, #36]	; 0x24
    hrtc->State = HAL_RTC_STATE_ERROR;
 8003370:	2304      	movs	r3, #4
 8003372:	7763      	strb	r3, [r4, #29]
    __HAL_UNLOCK(hrtc);
 8003374:	2300      	movs	r3, #0
 8003376:	7723      	strb	r3, [r4, #28]
    return HAL_ERROR;
 8003378:	2601      	movs	r6, #1
}
 800337a:	4630      	mov	r0, r6
 800337c:	bd70      	pop	{r4, r5, r6, pc}
      if(HAL_RTC_WaitForSynchro(hrtc) != HAL_OK)
 800337e:	4620      	mov	r0, r4
 8003380:	f7ff fe7c 	bl	800307c <HAL_RTC_WaitForSynchro>
 8003384:	2800      	cmp	r0, #0
 8003386:	d0dd      	beq.n	8003344 <HAL_RTC_SetDate+0x7c>
        __HAL_RTC_WRITEPROTECTION_ENABLE(hrtc);
 8003388:	6823      	ldr	r3, [r4, #0]
 800338a:	22ff      	movs	r2, #255	; 0xff
 800338c:	625a      	str	r2, [r3, #36]	; 0x24
        hrtc->State = HAL_RTC_STATE_ERROR;
 800338e:	2304      	movs	r3, #4
 8003390:	7763      	strb	r3, [r4, #29]
        __HAL_UNLOCK(hrtc);
 8003392:	2300      	movs	r3, #0
 8003394:	7723      	strb	r3, [r4, #28]
        return HAL_ERROR;
 8003396:	2601      	movs	r6, #1
 8003398:	e7ef      	b.n	800337a <HAL_RTC_SetDate+0xb2>
 __HAL_LOCK(hrtc);
 800339a:	2602      	movs	r6, #2
 800339c:	e7ed      	b.n	800337a <HAL_RTC_SetDate+0xb2>
 800339e:	bf00      	nop
 80033a0:	00ffff3f 	.word	0x00ffff3f

080033a4 <HAL_RTC_SetAlarm>:
{
 80033a4:	b5f8      	push	{r3, r4, r5, r6, r7, lr}
  __HAL_LOCK(hrtc);
 80033a6:	7f03      	ldrb	r3, [r0, #28]
 80033a8:	2b01      	cmp	r3, #1
 80033aa:	f000 80a9 	beq.w	8003500 <HAL_RTC_SetAlarm+0x15c>
 80033ae:	460d      	mov	r5, r1
 80033b0:	4604      	mov	r4, r0
 80033b2:	2301      	movs	r3, #1
 80033b4:	7703      	strb	r3, [r0, #28]
  hrtc->State = HAL_RTC_STATE_BUSY;
 80033b6:	2302      	movs	r3, #2
 80033b8:	7743      	strb	r3, [r0, #29]
  if(Format == RTC_FORMAT_BIN)
 80033ba:	2a00      	cmp	r2, #0
 80033bc:	d14d      	bne.n	800345a <HAL_RTC_SetAlarm+0xb6>
    if((hrtc->Instance->CR & RTC_CR_FMT) != (uint32_t)RESET)
 80033be:	6803      	ldr	r3, [r0, #0]
 80033c0:	689b      	ldr	r3, [r3, #8]
 80033c2:	f013 0f40 	tst.w	r3, #64	; 0x40
 80033c6:	d101      	bne.n	80033cc <HAL_RTC_SetAlarm+0x28>
      sAlarm->AlarmTime.TimeFormat = 0x00;
 80033c8:	2300      	movs	r3, #0
 80033ca:	730b      	strb	r3, [r1, #12]
    if(sAlarm->AlarmDateWeekDaySel == RTC_ALARMDATEWEEKDAYSEL_DATE)
 80033cc:	6a2e      	ldr	r6, [r5, #32]
    tmpreg = (((uint32_t)RTC_ByteToBcd2(sAlarm->AlarmTime.Hours) << 16) | \
 80033ce:	7828      	ldrb	r0, [r5, #0]
 80033d0:	f7ff feee 	bl	80031b0 <RTC_ByteToBcd2>
 80033d4:	0407      	lsls	r7, r0, #16
              ((uint32_t)RTC_ByteToBcd2(sAlarm->AlarmTime.Minutes) << 8) | \
 80033d6:	7868      	ldrb	r0, [r5, #1]
 80033d8:	f7ff feea 	bl	80031b0 <RTC_ByteToBcd2>
    tmpreg = (((uint32_t)RTC_ByteToBcd2(sAlarm->AlarmTime.Hours) << 16) | \
 80033dc:	ea47 2700 	orr.w	r7, r7, r0, lsl #8
              ((uint32_t)RTC_ByteToBcd2(sAlarm->AlarmTime.Seconds)) | \
 80033e0:	78a8      	ldrb	r0, [r5, #2]
 80033e2:	f7ff fee5 	bl	80031b0 <RTC_ByteToBcd2>
              ((uint32_t)RTC_ByteToBcd2(sAlarm->AlarmTime.Minutes) << 8) | \
 80033e6:	4307      	orrs	r7, r0
              ((uint32_t)(sAlarm->AlarmTime.TimeFormat) << 16) | \
 80033e8:	7b28      	ldrb	r0, [r5, #12]
              ((uint32_t)RTC_ByteToBcd2(sAlarm->AlarmTime.Seconds)) | \
 80033ea:	ea47 4700 	orr.w	r7, r7, r0, lsl #16
              ((uint32_t)RTC_ByteToBcd2(sAlarm->AlarmDateWeekDay) << 24) | \
 80033ee:	f895 0024 	ldrb.w	r0, [r5, #36]	; 0x24
 80033f2:	f7ff fedd 	bl	80031b0 <RTC_ByteToBcd2>
              ((uint32_t)(sAlarm->AlarmTime.TimeFormat) << 16) | \
 80033f6:	ea47 6000 	orr.w	r0, r7, r0, lsl #24
              ((uint32_t)RTC_ByteToBcd2(sAlarm->AlarmDateWeekDay) << 24) | \
 80033fa:	4306      	orrs	r6, r0
              ((uint32_t)sAlarm->AlarmMask));
 80033fc:	69ab      	ldr	r3, [r5, #24]
    tmpreg = (((uint32_t)RTC_ByteToBcd2(sAlarm->AlarmTime.Hours) << 16) | \
 80033fe:	431e      	orrs	r6, r3
  subsecondtmpreg = (uint32_t)((uint32_t)(sAlarm->AlarmTime.SubSeconds) | (uint32_t)(sAlarm->AlarmSubSecondMask));
 8003400:	686f      	ldr	r7, [r5, #4]
 8003402:	69eb      	ldr	r3, [r5, #28]
 8003404:	431f      	orrs	r7, r3
  __HAL_RTC_WRITEPROTECTION_DISABLE(hrtc);
 8003406:	6823      	ldr	r3, [r4, #0]
 8003408:	22ca      	movs	r2, #202	; 0xca
 800340a:	625a      	str	r2, [r3, #36]	; 0x24
 800340c:	6823      	ldr	r3, [r4, #0]
 800340e:	2253      	movs	r2, #83	; 0x53
 8003410:	625a      	str	r2, [r3, #36]	; 0x24
  if(sAlarm->Alarm == RTC_ALARM_A)
 8003412:	6aab      	ldr	r3, [r5, #40]	; 0x28
 8003414:	f5b3 7f80 	cmp.w	r3, #256	; 0x100
 8003418:	d039      	beq.n	800348e <HAL_RTC_SetAlarm+0xea>
    __HAL_RTC_ALARMB_DISABLE(hrtc);
 800341a:	6822      	ldr	r2, [r4, #0]
 800341c:	6893      	ldr	r3, [r2, #8]
 800341e:	f423 7300 	bic.w	r3, r3, #512	; 0x200
 8003422:	6093      	str	r3, [r2, #8]
    __HAL_RTC_ALARM_DISABLE_IT(hrtc, RTC_IT_ALRB);
 8003424:	6822      	ldr	r2, [r4, #0]
 8003426:	6893      	ldr	r3, [r2, #8]
 8003428:	f423 5300 	bic.w	r3, r3, #8192	; 0x2000
 800342c:	6093      	str	r3, [r2, #8]
    tickstart = HAL_GetTick();
 800342e:	f7fe fa1f 	bl	8001870 <HAL_GetTick>
 8003432:	4605      	mov	r5, r0
    while(__HAL_RTC_ALARM_GET_FLAG(hrtc, RTC_FLAG_ALRBWF) == RESET)
 8003434:	6823      	ldr	r3, [r4, #0]
 8003436:	68da      	ldr	r2, [r3, #12]
 8003438:	f012 0f02 	tst.w	r2, #2
 800343c:	d150      	bne.n	80034e0 <HAL_RTC_SetAlarm+0x13c>
      if((HAL_GetTick() - tickstart ) > RTC_TIMEOUT_VALUE)
 800343e:	f7fe fa17 	bl	8001870 <HAL_GetTick>
 8003442:	1b40      	subs	r0, r0, r5
 8003444:	f5b0 7f7a 	cmp.w	r0, #1000	; 0x3e8
 8003448:	d9f4      	bls.n	8003434 <HAL_RTC_SetAlarm+0x90>
        __HAL_RTC_WRITEPROTECTION_ENABLE(hrtc);
 800344a:	6823      	ldr	r3, [r4, #0]
 800344c:	22ff      	movs	r2, #255	; 0xff
 800344e:	625a      	str	r2, [r3, #36]	; 0x24
        hrtc->State = HAL_RTC_STATE_TIMEOUT;
 8003450:	2003      	movs	r0, #3
 8003452:	7760      	strb	r0, [r4, #29]
        __HAL_UNLOCK(hrtc);
 8003454:	2300      	movs	r3, #0
 8003456:	7723      	strb	r3, [r4, #28]
        return HAL_TIMEOUT;
 8003458:	e051      	b.n	80034fe <HAL_RTC_SetAlarm+0x15a>
    if((hrtc->Instance->CR & RTC_CR_FMT) != (uint32_t)RESET)
 800345a:	6803      	ldr	r3, [r0, #0]
 800345c:	689b      	ldr	r3, [r3, #8]
 800345e:	f013 0f40 	tst.w	r3, #64	; 0x40
 8003462:	d101      	bne.n	8003468 <HAL_RTC_SetAlarm+0xc4>
      sAlarm->AlarmTime.TimeFormat = 0x00;
 8003464:	2300      	movs	r3, #0
 8003466:	730b      	strb	r3, [r1, #12]
    if(sAlarm->AlarmDateWeekDaySel == RTC_ALARMDATEWEEKDAYSEL_DATE)
 8003468:	6a2a      	ldr	r2, [r5, #32]
    tmpreg = (((uint32_t)(sAlarm->AlarmTime.Hours) << 16) | \
 800346a:	7829      	ldrb	r1, [r5, #0]
              ((uint32_t)(sAlarm->AlarmTime.Minutes) << 8) | \
 800346c:	786b      	ldrb	r3, [r5, #1]
 800346e:	021b      	lsls	r3, r3, #8
    tmpreg = (((uint32_t)(sAlarm->AlarmTime.Hours) << 16) | \
 8003470:	ea43 4301 	orr.w	r3, r3, r1, lsl #16
              ((uint32_t) sAlarm->AlarmTime.Seconds) | \
 8003474:	78a9      	ldrb	r1, [r5, #2]
              ((uint32_t)(sAlarm->AlarmTime.Minutes) << 8) | \
 8003476:	430b      	orrs	r3, r1
              ((uint32_t)(sAlarm->AlarmTime.TimeFormat) << 16) | \
 8003478:	7b29      	ldrb	r1, [r5, #12]
              ((uint32_t) sAlarm->AlarmTime.Seconds) | \
 800347a:	ea43 4301 	orr.w	r3, r3, r1, lsl #16
              ((uint32_t)(sAlarm->AlarmDateWeekDay) << 24) | \
 800347e:	f895 1024 	ldrb.w	r1, [r5, #36]	; 0x24
              ((uint32_t)(sAlarm->AlarmTime.TimeFormat) << 16) | \
 8003482:	ea43 6301 	orr.w	r3, r3, r1, lsl #24
              ((uint32_t)(sAlarm->AlarmDateWeekDay) << 24) | \
 8003486:	4313      	orrs	r3, r2
              ((uint32_t)sAlarm->AlarmMask));
 8003488:	69ae      	ldr	r6, [r5, #24]
    tmpreg = (((uint32_t)(sAlarm->AlarmTime.Hours) << 16) | \
 800348a:	431e      	orrs	r6, r3
 800348c:	e7b8      	b.n	8003400 <HAL_RTC_SetAlarm+0x5c>
    __HAL_RTC_ALARMA_DISABLE(hrtc);
 800348e:	6822      	ldr	r2, [r4, #0]
 8003490:	6893      	ldr	r3, [r2, #8]
 8003492:	f423 7380 	bic.w	r3, r3, #256	; 0x100
 8003496:	6093      	str	r3, [r2, #8]
    __HAL_RTC_ALARM_DISABLE_IT(hrtc, RTC_IT_ALRA);
 8003498:	6822      	ldr	r2, [r4, #0]
 800349a:	6893      	ldr	r3, [r2, #8]
 800349c:	f423 5380 	bic.w	r3, r3, #4096	; 0x1000
 80034a0:	6093      	str	r3, [r2, #8]
    tickstart = HAL_GetTick();
 80034a2:	f7fe f9e5 	bl	8001870 <HAL_GetTick>
 80034a6:	4605      	mov	r5, r0
    while(__HAL_RTC_ALARM_GET_FLAG(hrtc, RTC_FLAG_ALRAWF) == RESET)
 80034a8:	6823      	ldr	r3, [r4, #0]
 80034aa:	68da      	ldr	r2, [r3, #12]
 80034ac:	f012 0f01 	tst.w	r2, #1
 80034b0:	d10d      	bne.n	80034ce <HAL_RTC_SetAlarm+0x12a>
      if((HAL_GetTick() - tickstart ) > RTC_TIMEOUT_VALUE)
 80034b2:	f7fe f9dd 	bl	8001870 <HAL_GetTick>
 80034b6:	1b40      	subs	r0, r0, r5
 80034b8:	f5b0 7f7a 	cmp.w	r0, #1000	; 0x3e8
 80034bc:	d9f4      	bls.n	80034a8 <HAL_RTC_SetAlarm+0x104>
        __HAL_RTC_WRITEPROTECTION_ENABLE(hrtc);
 80034be:	6823      	ldr	r3, [r4, #0]
 80034c0:	22ff      	movs	r2, #255	; 0xff
 80034c2:	625a      	str	r2, [r3, #36]	; 0x24
        hrtc->State = HAL_RTC_STATE_TIMEOUT;
 80034c4:	2003      	movs	r0, #3
 80034c6:	7760      	strb	r0, [r4, #29]
        __HAL_UNLOCK(hrtc);
 80034c8:	2300      	movs	r3, #0
 80034ca:	7723      	strb	r3, [r4, #28]
        return HAL_TIMEOUT;
 80034cc:	e017      	b.n	80034fe <HAL_RTC_SetAlarm+0x15a>
    hrtc->Instance->ALRMAR = (uint32_t)tmpreg;
 80034ce:	61de      	str	r6, [r3, #28]
    hrtc->Instance->ALRMASSR = subsecondtmpreg;
 80034d0:	6823      	ldr	r3, [r4, #0]
 80034d2:	645f      	str	r7, [r3, #68]	; 0x44
    __HAL_RTC_ALARMA_ENABLE(hrtc);
 80034d4:	6822      	ldr	r2, [r4, #0]
 80034d6:	6893      	ldr	r3, [r2, #8]
 80034d8:	f443 7380 	orr.w	r3, r3, #256	; 0x100
 80034dc:	6093      	str	r3, [r2, #8]
 80034de:	e007      	b.n	80034f0 <HAL_RTC_SetAlarm+0x14c>
    hrtc->Instance->ALRMBR = (uint32_t)tmpreg;
 80034e0:	621e      	str	r6, [r3, #32]
    hrtc->Instance->ALRMBSSR = subsecondtmpreg;
 80034e2:	6823      	ldr	r3, [r4, #0]
 80034e4:	649f      	str	r7, [r3, #72]	; 0x48
    __HAL_RTC_ALARMB_ENABLE(hrtc);
 80034e6:	6822      	ldr	r2, [r4, #0]
 80034e8:	6893      	ldr	r3, [r2, #8]
 80034ea:	f443 7300 	orr.w	r3, r3, #512	; 0x200
 80034ee:	6093      	str	r3, [r2, #8]
  __HAL_RTC_WRITEPROTECTION_ENABLE(hrtc);
 80034f0:	6823      	ldr	r3, [r4, #0]
 80034f2:	22ff      	movs	r2, #255	; 0xff
 80034f4:	625a      	str	r2, [r3, #36]	; 0x24
  hrtc->State = HAL_RTC_STATE_READY;
 80034f6:	2301      	movs	r3, #1
 80034f8:	7763      	strb	r3, [r4, #29]
  __HAL_UNLOCK(hrtc);
 80034fa:	2000      	movs	r0, #0
 80034fc:	7720      	strb	r0, [r4, #28]
}
 80034fe:	bdf8      	pop	{r3, r4, r5, r6, r7, pc}
  __HAL_LOCK(hrtc);
 8003500:	2002      	movs	r0, #2
 8003502:	e7fc      	b.n	80034fe <HAL_RTC_SetAlarm+0x15a>

08003504 <HAL_RTCEx_SetTimeStamp>:
  *             @arg RTC_TIMESTAMPPIN_PI8: PI8 is selected as RTC TimeStamp Pin.
  *             @arg RTC_TIMESTAMPPIN_PC1: PC1 is selected as RTC TimeStamp Pin.
  * @retval HAL status
  */
HAL_StatusTypeDef HAL_RTCEx_SetTimeStamp(RTC_HandleTypeDef *hrtc, uint32_t TimeStampEdge, uint32_t RTC_TimeStampPin)
{
 8003504:	b470      	push	{r4, r5, r6}
  /* Check the parameters */
  assert_param(IS_TIMESTAMP_EDGE(TimeStampEdge));
  assert_param(IS_RTC_TIMESTAMP_PIN(RTC_TimeStampPin));

  /* Process Locked */
  __HAL_LOCK(hrtc);
 8003506:	7f04      	ldrb	r4, [r0, #28]
 8003508:	2c01      	cmp	r4, #1
 800350a:	d027      	beq.n	800355c <HAL_RTCEx_SetTimeStamp+0x58>
 800350c:	2401      	movs	r4, #1
 800350e:	7704      	strb	r4, [r0, #28]

  hrtc->State = HAL_RTC_STATE_BUSY;
 8003510:	2302      	movs	r3, #2
 8003512:	7743      	strb	r3, [r0, #29]

  /* Get the RTC_CR register and clear the bits to be configured */
  tmpreg = (uint32_t)(hrtc->Instance->CR & (uint32_t)~(RTC_CR_TSEDGE | RTC_CR_TSE));
 8003514:	6805      	ldr	r5, [r0, #0]
 8003516:	68ae      	ldr	r6, [r5, #8]
 8003518:	f6a3 030b 	subw	r3, r3, #2059	; 0x80b
 800351c:	4033      	ands	r3, r6

  tmpreg|= TimeStampEdge;
 800351e:	4319      	orrs	r1, r3

  /* Disable the write protection for RTC registers */
  __HAL_RTC_WRITEPROTECTION_DISABLE(hrtc);
 8003520:	23ca      	movs	r3, #202	; 0xca
 8003522:	626b      	str	r3, [r5, #36]	; 0x24
 8003524:	6803      	ldr	r3, [r0, #0]
 8003526:	2553      	movs	r5, #83	; 0x53
 8003528:	625d      	str	r5, [r3, #36]	; 0x24

  hrtc->Instance->OR &= (uint32_t)~RTC_OR_TSINSEL;
 800352a:	6805      	ldr	r5, [r0, #0]
 800352c:	6ceb      	ldr	r3, [r5, #76]	; 0x4c
 800352e:	f023 0306 	bic.w	r3, r3, #6
 8003532:	64eb      	str	r3, [r5, #76]	; 0x4c
  hrtc->Instance->OR |= (uint32_t)(RTC_TimeStampPin);
 8003534:	6805      	ldr	r5, [r0, #0]
 8003536:	6ceb      	ldr	r3, [r5, #76]	; 0x4c
 8003538:	431a      	orrs	r2, r3
 800353a:	64ea      	str	r2, [r5, #76]	; 0x4c

  /* Configure the Time Stamp TSEDGE and Enable bits */
  hrtc->Instance->CR = (uint32_t)tmpreg;
 800353c:	6803      	ldr	r3, [r0, #0]
 800353e:	6099      	str	r1, [r3, #8]

  __HAL_RTC_TIMESTAMP_ENABLE(hrtc);
 8003540:	6802      	ldr	r2, [r0, #0]
 8003542:	6893      	ldr	r3, [r2, #8]
 8003544:	f443 6300 	orr.w	r3, r3, #2048	; 0x800
 8003548:	6093      	str	r3, [r2, #8]

  /* Enable the write protection for RTC registers */
  __HAL_RTC_WRITEPROTECTION_ENABLE(hrtc);
 800354a:	6803      	ldr	r3, [r0, #0]
 800354c:	22ff      	movs	r2, #255	; 0xff
 800354e:	625a      	str	r2, [r3, #36]	; 0x24

  /* Change RTC state */
  hrtc->State = HAL_RTC_STATE_READY;
 8003550:	7744      	strb	r4, [r0, #29]

  /* Process Unlocked */
  __HAL_UNLOCK(hrtc);
 8003552:	2300      	movs	r3, #0
 8003554:	7703      	strb	r3, [r0, #28]

  return HAL_OK;
 8003556:	4618      	mov	r0, r3
}
 8003558:	bc70      	pop	{r4, r5, r6}
 800355a:	4770      	bx	lr
  __HAL_LOCK(hrtc);
 800355c:	2002      	movs	r0, #2
 800355e:	e7fb      	b.n	8003558 <HAL_RTCEx_SetTimeStamp+0x54>

08003560 <HAL_SDRAM_Init>:
  * @retval HAL status
  */
HAL_StatusTypeDef HAL_SDRAM_Init(SDRAM_HandleTypeDef *hsdram, FMC_SDRAM_TimingTypeDef *Timing)
{   
  /* Check the SDRAM handle parameter */
  if(hsdram == NULL)
 8003560:	b1d8      	cbz	r0, 800359a <HAL_SDRAM_Init+0x3a>
{   
 8003562:	b538      	push	{r3, r4, r5, lr}
 8003564:	4604      	mov	r4, r0
 8003566:	460d      	mov	r5, r1
  {
    return HAL_ERROR;
  }
  
  if(hsdram->State == HAL_SDRAM_STATE_RESET)
 8003568:	f890 302c 	ldrb.w	r3, [r0, #44]	; 0x2c
 800356c:	b183      	cbz	r3, 8003590 <HAL_SDRAM_Init+0x30>
    HAL_SDRAM_MspInit(hsdram);
#endif
  }
  
  /* Initialize the SDRAM controller state */
  hsdram->State = HAL_SDRAM_STATE_BUSY;
 800356e:	2302      	movs	r3, #2
 8003570:	f884 302c 	strb.w	r3, [r4, #44]	; 0x2c
  
  /* Initialize SDRAM control Interface */
  FMC_SDRAM_Init(hsdram->Instance, &(hsdram->Init));
 8003574:	1d21      	adds	r1, r4, #4
 8003576:	6820      	ldr	r0, [r4, #0]
 8003578:	f000 f9e4 	bl	8003944 <FMC_SDRAM_Init>
  
  /* Initialize SDRAM timing Interface */
  FMC_SDRAM_Timing_Init(hsdram->Instance, Timing, hsdram->Init.SDBank); 
 800357c:	6862      	ldr	r2, [r4, #4]
 800357e:	4629      	mov	r1, r5
 8003580:	6820      	ldr	r0, [r4, #0]
 8003582:	f000 fa19 	bl	80039b8 <FMC_SDRAM_Timing_Init>
  
  /* Update the SDRAM controller state */
  hsdram->State = HAL_SDRAM_STATE_READY;
 8003586:	2301      	movs	r3, #1
 8003588:	f884 302c 	strb.w	r3, [r4, #44]	; 0x2c
  
  return HAL_OK;
 800358c:	2000      	movs	r0, #0
}
 800358e:	bd38      	pop	{r3, r4, r5, pc}
    hsdram->Lock = HAL_UNLOCKED;
 8003590:	f880 302d 	strb.w	r3, [r0, #45]	; 0x2d
    HAL_SDRAM_MspInit(hsdram);
 8003594:	f7fe f8b6 	bl	8001704 <HAL_SDRAM_MspInit>
 8003598:	e7e9      	b.n	800356e <HAL_SDRAM_Init+0xe>
    return HAL_ERROR;
 800359a:	2001      	movs	r0, #1
}
 800359c:	4770      	bx	lr

0800359e <HAL_TIM_Base_MspInit>:
  UNUSED(htim);

  /* NOTE : This function should not be modified, when the callback is needed,
            the HAL_TIM_Base_MspInit could be implemented in the user file
   */
}
 800359e:	4770      	bx	lr

080035a0 <HAL_TIM_Base_Start_IT>:

  /* Check the parameters */
  assert_param(IS_TIM_INSTANCE(htim->Instance));

  /* Check the TIM state */
  if (htim->State != HAL_TIM_STATE_READY)
 80035a0:	f890 303d 	ldrb.w	r3, [r0, #61]	; 0x3d
 80035a4:	b2db      	uxtb	r3, r3
 80035a6:	2b01      	cmp	r3, #1
 80035a8:	d001      	beq.n	80035ae <HAL_TIM_Base_Start_IT+0xe>
  {
    return HAL_ERROR;
 80035aa:	2001      	movs	r0, #1
 80035ac:	4770      	bx	lr
  }

  /* Set the TIM state */
  htim->State = HAL_TIM_STATE_BUSY;
 80035ae:	2302      	movs	r3, #2
 80035b0:	f880 303d 	strb.w	r3, [r0, #61]	; 0x3d

  /* Enable the TIM Update interrupt */
  __HAL_TIM_ENABLE_IT(htim, TIM_IT_UPDATE);
 80035b4:	6802      	ldr	r2, [r0, #0]
 80035b6:	68d3      	ldr	r3, [r2, #12]
 80035b8:	f043 0301 	orr.w	r3, r3, #1
 80035bc:	60d3      	str	r3, [r2, #12]

  /* Enable the Peripheral, except in trigger mode where enable is automatically done with trigger */
  if (IS_TIM_SLAVE_INSTANCE(htim->Instance))
 80035be:	6803      	ldr	r3, [r0, #0]
 80035c0:	4a19      	ldr	r2, [pc, #100]	; (8003628 <HAL_TIM_Base_Start_IT+0x88>)
 80035c2:	f1b3 4f80 	cmp.w	r3, #1073741824	; 0x40000000
 80035c6:	bf18      	it	ne
 80035c8:	4293      	cmpne	r3, r2
 80035ca:	d01d      	beq.n	8003608 <HAL_TIM_Base_Start_IT+0x68>
 80035cc:	f5a2 427c 	sub.w	r2, r2, #64512	; 0xfc00
 80035d0:	4293      	cmp	r3, r2
 80035d2:	d019      	beq.n	8003608 <HAL_TIM_Base_Start_IT+0x68>
 80035d4:	f502 6280 	add.w	r2, r2, #1024	; 0x400
 80035d8:	4293      	cmp	r3, r2
 80035da:	d015      	beq.n	8003608 <HAL_TIM_Base_Start_IT+0x68>
 80035dc:	f502 6280 	add.w	r2, r2, #1024	; 0x400
 80035e0:	4293      	cmp	r3, r2
 80035e2:	d011      	beq.n	8003608 <HAL_TIM_Base_Start_IT+0x68>
 80035e4:	f502 4278 	add.w	r2, r2, #63488	; 0xf800
 80035e8:	4293      	cmp	r3, r2
 80035ea:	d00d      	beq.n	8003608 <HAL_TIM_Base_Start_IT+0x68>
 80035ec:	f502 5270 	add.w	r2, r2, #15360	; 0x3c00
 80035f0:	4293      	cmp	r3, r2
 80035f2:	d009      	beq.n	8003608 <HAL_TIM_Base_Start_IT+0x68>
 80035f4:	f5a2 3294 	sub.w	r2, r2, #75776	; 0x12800
 80035f8:	4293      	cmp	r3, r2
 80035fa:	d005      	beq.n	8003608 <HAL_TIM_Base_Start_IT+0x68>
      __HAL_TIM_ENABLE(htim);
    }
  }
  else
  {
    __HAL_TIM_ENABLE(htim);
 80035fc:	681a      	ldr	r2, [r3, #0]
 80035fe:	f042 0201 	orr.w	r2, r2, #1
 8003602:	601a      	str	r2, [r3, #0]
  }

  /* Return function status */
  return HAL_OK;
 8003604:	2000      	movs	r0, #0
 8003606:	4770      	bx	lr
    tmpsmcr = htim->Instance->SMCR & TIM_SMCR_SMS;
 8003608:	6899      	ldr	r1, [r3, #8]
 800360a:	4a08      	ldr	r2, [pc, #32]	; (800362c <HAL_TIM_Base_Start_IT+0x8c>)
 800360c:	400a      	ands	r2, r1
    if (!IS_TIM_SLAVEMODE_TRIGGER_ENABLED(tmpsmcr))
 800360e:	2a06      	cmp	r2, #6
 8003610:	bf18      	it	ne
 8003612:	f5b2 3f80 	cmpne.w	r2, #65536	; 0x10000
 8003616:	d005      	beq.n	8003624 <HAL_TIM_Base_Start_IT+0x84>
      __HAL_TIM_ENABLE(htim);
 8003618:	681a      	ldr	r2, [r3, #0]
 800361a:	f042 0201 	orr.w	r2, r2, #1
 800361e:	601a      	str	r2, [r3, #0]
  return HAL_OK;
 8003620:	2000      	movs	r0, #0
 8003622:	4770      	bx	lr
 8003624:	2000      	movs	r0, #0
}
 8003626:	4770      	bx	lr
 8003628:	40010000 	.word	0x40010000
 800362c:	00010007 	.word	0x00010007

08003630 <HAL_TIM_OC_DelayElapsedCallback>:
  UNUSED(htim);

  /* NOTE : This function should not be modified, when the callback is needed,
            the HAL_TIM_OC_DelayElapsedCallback could be implemented in the user file
   */
}
 8003630:	4770      	bx	lr

08003632 <HAL_TIM_IC_CaptureCallback>:
  UNUSED(htim);

  /* NOTE : This function should not be modified, when the callback is needed,
            the HAL_TIM_IC_CaptureCallback could be implemented in the user file
   */
}
 8003632:	4770      	bx	lr

08003634 <HAL_TIM_PWM_PulseFinishedCallback>:
  UNUSED(htim);

  /* NOTE : This function should not be modified, when the callback is needed,
            the HAL_TIM_PWM_PulseFinishedCallback could be implemented in the user file
   */
}
 8003634:	4770      	bx	lr

08003636 <HAL_TIM_TriggerCallback>:
  UNUSED(htim);

  /* NOTE : This function should not be modified, when the callback is needed,
            the HAL_TIM_TriggerCallback could be implemented in the user file
   */
}
 8003636:	4770      	bx	lr

08003638 <HAL_TIM_IRQHandler>:
{
 8003638:	b510      	push	{r4, lr}
 800363a:	4604      	mov	r4, r0
  if (__HAL_TIM_GET_FLAG(htim, TIM_FLAG_CC1) != RESET)
 800363c:	6803      	ldr	r3, [r0, #0]
 800363e:	691a      	ldr	r2, [r3, #16]
 8003640:	f012 0f02 	tst.w	r2, #2
 8003644:	d011      	beq.n	800366a <HAL_TIM_IRQHandler+0x32>
    if (__HAL_TIM_GET_IT_SOURCE(htim, TIM_IT_CC1) != RESET)
 8003646:	68da      	ldr	r2, [r3, #12]
 8003648:	f012 0f02 	tst.w	r2, #2
 800364c:	d00d      	beq.n	800366a <HAL_TIM_IRQHandler+0x32>
        __HAL_TIM_CLEAR_IT(htim, TIM_IT_CC1);
 800364e:	f06f 0202 	mvn.w	r2, #2
 8003652:	611a      	str	r2, [r3, #16]
        htim->Channel = HAL_TIM_ACTIVE_CHANNEL_1;
 8003654:	2301      	movs	r3, #1
 8003656:	7703      	strb	r3, [r0, #28]
        if ((htim->Instance->CCMR1 & TIM_CCMR1_CC1S) != 0x00U)
 8003658:	6803      	ldr	r3, [r0, #0]
 800365a:	699b      	ldr	r3, [r3, #24]
 800365c:	f013 0f03 	tst.w	r3, #3
 8003660:	d079      	beq.n	8003756 <HAL_TIM_IRQHandler+0x11e>
          HAL_TIM_IC_CaptureCallback(htim);
 8003662:	f7ff ffe6 	bl	8003632 <HAL_TIM_IC_CaptureCallback>
        htim->Channel = HAL_TIM_ACTIVE_CHANNEL_CLEARED;
 8003666:	2300      	movs	r3, #0
 8003668:	7723      	strb	r3, [r4, #28]
  if (__HAL_TIM_GET_FLAG(htim, TIM_FLAG_CC2) != RESET)
 800366a:	6823      	ldr	r3, [r4, #0]
 800366c:	691a      	ldr	r2, [r3, #16]
 800366e:	f012 0f04 	tst.w	r2, #4
 8003672:	d012      	beq.n	800369a <HAL_TIM_IRQHandler+0x62>
    if (__HAL_TIM_GET_IT_SOURCE(htim, TIM_IT_CC2) != RESET)
 8003674:	68da      	ldr	r2, [r3, #12]
 8003676:	f012 0f04 	tst.w	r2, #4
 800367a:	d00e      	beq.n	800369a <HAL_TIM_IRQHandler+0x62>
      __HAL_TIM_CLEAR_IT(htim, TIM_IT_CC2);
 800367c:	f06f 0204 	mvn.w	r2, #4
 8003680:	611a      	str	r2, [r3, #16]
      htim->Channel = HAL_TIM_ACTIVE_CHANNEL_2;
 8003682:	2302      	movs	r3, #2
 8003684:	7723      	strb	r3, [r4, #28]
      if ((htim->Instance->CCMR1 & TIM_CCMR1_CC2S) != 0x00U)
 8003686:	6823      	ldr	r3, [r4, #0]
 8003688:	699b      	ldr	r3, [r3, #24]
 800368a:	f413 7f40 	tst.w	r3, #768	; 0x300
 800368e:	d068      	beq.n	8003762 <HAL_TIM_IRQHandler+0x12a>
        HAL_TIM_IC_CaptureCallback(htim);
 8003690:	4620      	mov	r0, r4
 8003692:	f7ff ffce 	bl	8003632 <HAL_TIM_IC_CaptureCallback>
      htim->Channel = HAL_TIM_ACTIVE_CHANNEL_CLEARED;
 8003696:	2300      	movs	r3, #0
 8003698:	7723      	strb	r3, [r4, #28]
  if (__HAL_TIM_GET_FLAG(htim, TIM_FLAG_CC3) != RESET)
 800369a:	6823      	ldr	r3, [r4, #0]
 800369c:	691a      	ldr	r2, [r3, #16]
 800369e:	f012 0f08 	tst.w	r2, #8
 80036a2:	d012      	beq.n	80036ca <HAL_TIM_IRQHandler+0x92>
    if (__HAL_TIM_GET_IT_SOURCE(htim, TIM_IT_CC3) != RESET)
 80036a4:	68da      	ldr	r2, [r3, #12]
 80036a6:	f012 0f08 	tst.w	r2, #8
 80036aa:	d00e      	beq.n	80036ca <HAL_TIM_IRQHandler+0x92>
      __HAL_TIM_CLEAR_IT(htim, TIM_IT_CC3);
 80036ac:	f06f 0208 	mvn.w	r2, #8
 80036b0:	611a      	str	r2, [r3, #16]
      htim->Channel = HAL_TIM_ACTIVE_CHANNEL_3;
 80036b2:	2304      	movs	r3, #4
 80036b4:	7723      	strb	r3, [r4, #28]
      if ((htim->Instance->CCMR2 & TIM_CCMR2_CC3S) != 0x00U)
 80036b6:	6823      	ldr	r3, [r4, #0]
 80036b8:	69db      	ldr	r3, [r3, #28]
 80036ba:	f013 0f03 	tst.w	r3, #3
 80036be:	d057      	beq.n	8003770 <HAL_TIM_IRQHandler+0x138>
        HAL_TIM_IC_CaptureCallback(htim);
 80036c0:	4620      	mov	r0, r4
 80036c2:	f7ff ffb6 	bl	8003632 <HAL_TIM_IC_CaptureCallback>
      htim->Channel = HAL_TIM_ACTIVE_CHANNEL_CLEARED;
 80036c6:	2300      	movs	r3, #0
 80036c8:	7723      	strb	r3, [r4, #28]
  if (__HAL_TIM_GET_FLAG(htim, TIM_FLAG_CC4) != RESET)
 80036ca:	6823      	ldr	r3, [r4, #0]
 80036cc:	691a      	ldr	r2, [r3, #16]
 80036ce:	f012 0f10 	tst.w	r2, #16
 80036d2:	d012      	beq.n	80036fa <HAL_TIM_IRQHandler+0xc2>
    if (__HAL_TIM_GET_IT_SOURCE(htim, TIM_IT_CC4) != RESET)
 80036d4:	68da      	ldr	r2, [r3, #12]
 80036d6:	f012 0f10 	tst.w	r2, #16
 80036da:	d00e      	beq.n	80036fa <HAL_TIM_IRQHandler+0xc2>
      __HAL_TIM_CLEAR_IT(htim, TIM_IT_CC4);
 80036dc:	f06f 0210 	mvn.w	r2, #16
 80036e0:	611a      	str	r2, [r3, #16]
      htim->Channel = HAL_TIM_ACTIVE_CHANNEL_4;
 80036e2:	2308      	movs	r3, #8
 80036e4:	7723      	strb	r3, [r4, #28]
      if ((htim->Instance->CCMR2 & TIM_CCMR2_CC4S) != 0x00U)
 80036e6:	6823      	ldr	r3, [r4, #0]
 80036e8:	69db      	ldr	r3, [r3, #28]
 80036ea:	f413 7f40 	tst.w	r3, #768	; 0x300
 80036ee:	d046      	beq.n	800377e <HAL_TIM_IRQHandler+0x146>
        HAL_TIM_IC_CaptureCallback(htim);
 80036f0:	4620      	mov	r0, r4
 80036f2:	f7ff ff9e 	bl	8003632 <HAL_TIM_IC_CaptureCallback>
      htim->Channel = HAL_TIM_ACTIVE_CHANNEL_CLEARED;
 80036f6:	2300      	movs	r3, #0
 80036f8:	7723      	strb	r3, [r4, #28]
  if (__HAL_TIM_GET_FLAG(htim, TIM_FLAG_UPDATE) != RESET)
 80036fa:	6823      	ldr	r3, [r4, #0]
 80036fc:	691a      	ldr	r2, [r3, #16]
 80036fe:	f012 0f01 	tst.w	r2, #1
 8003702:	d003      	beq.n	800370c <HAL_TIM_IRQHandler+0xd4>
    if (__HAL_TIM_GET_IT_SOURCE(htim, TIM_IT_UPDATE) != RESET)
 8003704:	68da      	ldr	r2, [r3, #12]
 8003706:	f012 0f01 	tst.w	r2, #1
 800370a:	d13f      	bne.n	800378c <HAL_TIM_IRQHandler+0x154>
  if (__HAL_TIM_GET_FLAG(htim, TIM_FLAG_BREAK) != RESET)
 800370c:	6823      	ldr	r3, [r4, #0]
 800370e:	691a      	ldr	r2, [r3, #16]
 8003710:	f012 0f80 	tst.w	r2, #128	; 0x80
 8003714:	d003      	beq.n	800371e <HAL_TIM_IRQHandler+0xe6>
    if (__HAL_TIM_GET_IT_SOURCE(htim, TIM_IT_BREAK) != RESET)
 8003716:	68da      	ldr	r2, [r3, #12]
 8003718:	f012 0f80 	tst.w	r2, #128	; 0x80
 800371c:	d13d      	bne.n	800379a <HAL_TIM_IRQHandler+0x162>
  if (__HAL_TIM_GET_FLAG(htim, TIM_FLAG_BREAK2) != RESET)
 800371e:	6823      	ldr	r3, [r4, #0]
 8003720:	691a      	ldr	r2, [r3, #16]
 8003722:	f412 7f80 	tst.w	r2, #256	; 0x100
 8003726:	d003      	beq.n	8003730 <HAL_TIM_IRQHandler+0xf8>
    if (__HAL_TIM_GET_IT_SOURCE(htim, TIM_IT_BREAK) != RESET)
 8003728:	68da      	ldr	r2, [r3, #12]
 800372a:	f012 0f80 	tst.w	r2, #128	; 0x80
 800372e:	d13b      	bne.n	80037a8 <HAL_TIM_IRQHandler+0x170>
  if (__HAL_TIM_GET_FLAG(htim, TIM_FLAG_TRIGGER) != RESET)
 8003730:	6823      	ldr	r3, [r4, #0]
 8003732:	691a      	ldr	r2, [r3, #16]
 8003734:	f012 0f40 	tst.w	r2, #64	; 0x40
 8003738:	d003      	beq.n	8003742 <HAL_TIM_IRQHandler+0x10a>
    if (__HAL_TIM_GET_IT_SOURCE(htim, TIM_IT_TRIGGER) != RESET)
 800373a:	68da      	ldr	r2, [r3, #12]
 800373c:	f012 0f40 	tst.w	r2, #64	; 0x40
 8003740:	d139      	bne.n	80037b6 <HAL_TIM_IRQHandler+0x17e>
  if (__HAL_TIM_GET_FLAG(htim, TIM_FLAG_COM) != RESET)
 8003742:	6823      	ldr	r3, [r4, #0]
 8003744:	691a      	ldr	r2, [r3, #16]
 8003746:	f012 0f20 	tst.w	r2, #32
 800374a:	d003      	beq.n	8003754 <HAL_TIM_IRQHandler+0x11c>
    if (__HAL_TIM_GET_IT_SOURCE(htim, TIM_IT_COM) != RESET)
 800374c:	68da      	ldr	r2, [r3, #12]
 800374e:	f012 0f20 	tst.w	r2, #32
 8003752:	d137      	bne.n	80037c4 <HAL_TIM_IRQHandler+0x18c>
}
 8003754:	bd10      	pop	{r4, pc}
          HAL_TIM_OC_DelayElapsedCallback(htim);
 8003756:	f7ff ff6b 	bl	8003630 <HAL_TIM_OC_DelayElapsedCallback>
          HAL_TIM_PWM_PulseFinishedCallback(htim);
 800375a:	4620      	mov	r0, r4
 800375c:	f7ff ff6a 	bl	8003634 <HAL_TIM_PWM_PulseFinishedCallback>
 8003760:	e781      	b.n	8003666 <HAL_TIM_IRQHandler+0x2e>
        HAL_TIM_OC_DelayElapsedCallback(htim);
 8003762:	4620      	mov	r0, r4
 8003764:	f7ff ff64 	bl	8003630 <HAL_TIM_OC_DelayElapsedCallback>
        HAL_TIM_PWM_PulseFinishedCallback(htim);
 8003768:	4620      	mov	r0, r4
 800376a:	f7ff ff63 	bl	8003634 <HAL_TIM_PWM_PulseFinishedCallback>
 800376e:	e792      	b.n	8003696 <HAL_TIM_IRQHandler+0x5e>
        HAL_TIM_OC_DelayElapsedCallback(htim);
 8003770:	4620      	mov	r0, r4
 8003772:	f7ff ff5d 	bl	8003630 <HAL_TIM_OC_DelayElapsedCallback>
        HAL_TIM_PWM_PulseFinishedCallback(htim);
 8003776:	4620      	mov	r0, r4
 8003778:	f7ff ff5c 	bl	8003634 <HAL_TIM_PWM_PulseFinishedCallback>
 800377c:	e7a3      	b.n	80036c6 <HAL_TIM_IRQHandler+0x8e>
        HAL_TIM_OC_DelayElapsedCallback(htim);
 800377e:	4620      	mov	r0, r4
 8003780:	f7ff ff56 	bl	8003630 <HAL_TIM_OC_DelayElapsedCallback>
        HAL_TIM_PWM_PulseFinishedCallback(htim);
 8003784:	4620      	mov	r0, r4
 8003786:	f7ff ff55 	bl	8003634 <HAL_TIM_PWM_PulseFinishedCallback>
 800378a:	e7b4      	b.n	80036f6 <HAL_TIM_IRQHandler+0xbe>
      __HAL_TIM_CLEAR_IT(htim, TIM_IT_UPDATE);
 800378c:	f06f 0201 	mvn.w	r2, #1
 8003790:	611a      	str	r2, [r3, #16]
      HAL_TIM_PeriodElapsedCallback(htim);
 8003792:	4620      	mov	r0, r4
 8003794:	f7fd fc48 	bl	8001028 <HAL_TIM_PeriodElapsedCallback>
 8003798:	e7b8      	b.n	800370c <HAL_TIM_IRQHandler+0xd4>
      __HAL_TIM_CLEAR_IT(htim, TIM_IT_BREAK);
 800379a:	f06f 0280 	mvn.w	r2, #128	; 0x80
 800379e:	611a      	str	r2, [r3, #16]
      HAL_TIMEx_BreakCallback(htim);
 80037a0:	4620      	mov	r0, r4
 80037a2:	f000 f8cd 	bl	8003940 <HAL_TIMEx_BreakCallback>
 80037a6:	e7ba      	b.n	800371e <HAL_TIM_IRQHandler+0xe6>
      __HAL_TIM_CLEAR_FLAG(htim, TIM_FLAG_BREAK2);
 80037a8:	f46f 7280 	mvn.w	r2, #256	; 0x100
 80037ac:	611a      	str	r2, [r3, #16]
      HAL_TIMEx_Break2Callback(htim);
 80037ae:	4620      	mov	r0, r4
 80037b0:	f000 f8c7 	bl	8003942 <HAL_TIMEx_Break2Callback>
 80037b4:	e7bc      	b.n	8003730 <HAL_TIM_IRQHandler+0xf8>
      __HAL_TIM_CLEAR_IT(htim, TIM_IT_TRIGGER);
 80037b6:	f06f 0240 	mvn.w	r2, #64	; 0x40
 80037ba:	611a      	str	r2, [r3, #16]
      HAL_TIM_TriggerCallback(htim);
 80037bc:	4620      	mov	r0, r4
 80037be:	f7ff ff3a 	bl	8003636 <HAL_TIM_TriggerCallback>
 80037c2:	e7be      	b.n	8003742 <HAL_TIM_IRQHandler+0x10a>
      __HAL_TIM_CLEAR_IT(htim, TIM_FLAG_COM);
 80037c4:	f06f 0220 	mvn.w	r2, #32
 80037c8:	611a      	str	r2, [r3, #16]
      HAL_TIMEx_CommutCallback(htim);
 80037ca:	4620      	mov	r0, r4
 80037cc:	f000 f8b7 	bl	800393e <HAL_TIMEx_CommutCallback>
}
 80037d0:	e7c0      	b.n	8003754 <HAL_TIM_IRQHandler+0x11c>
	...

080037d4 <TIM_Base_SetConfig>:
  * @param  TIMx TIM peripheral
  * @param  Structure TIM Base configuration structure
  * @retval None
  */
void TIM_Base_SetConfig(TIM_TypeDef *TIMx, TIM_Base_InitTypeDef *Structure)
{
 80037d4:	b470      	push	{r4, r5, r6}
  uint32_t tmpcr1;
  tmpcr1 = TIMx->CR1;
 80037d6:	6803      	ldr	r3, [r0, #0]

  /* Set TIM Time Base Unit parameters ---------------------------------------*/
  if (IS_TIM_COUNTER_MODE_SELECT_INSTANCE(TIMx))
 80037d8:	4c3a      	ldr	r4, [pc, #232]	; (80038c4 <TIM_Base_SetConfig+0xf0>)
 80037da:	42a0      	cmp	r0, r4
 80037dc:	bf14      	ite	ne
 80037de:	2400      	movne	r4, #0
 80037e0:	2401      	moveq	r4, #1
 80037e2:	f1b0 4f80 	cmp.w	r0, #1073741824	; 0x40000000
 80037e6:	bf14      	ite	ne
 80037e8:	4622      	movne	r2, r4
 80037ea:	f044 0201 	orreq.w	r2, r4, #1
 80037ee:	b9aa      	cbnz	r2, 800381c <TIM_Base_SetConfig+0x48>
 80037f0:	4d35      	ldr	r5, [pc, #212]	; (80038c8 <TIM_Base_SetConfig+0xf4>)
 80037f2:	42a8      	cmp	r0, r5
 80037f4:	bf14      	ite	ne
 80037f6:	2500      	movne	r5, #0
 80037f8:	2501      	moveq	r5, #1
 80037fa:	4e34      	ldr	r6, [pc, #208]	; (80038cc <TIM_Base_SetConfig+0xf8>)
 80037fc:	42b0      	cmp	r0, r6
 80037fe:	d00d      	beq.n	800381c <TIM_Base_SetConfig+0x48>
 8003800:	b965      	cbnz	r5, 800381c <TIM_Base_SetConfig+0x48>
 8003802:	f105 4580 	add.w	r5, r5, #1073741824	; 0x40000000
 8003806:	f505 3582 	add.w	r5, r5, #66560	; 0x10400
 800380a:	42a8      	cmp	r0, r5
 800380c:	bf14      	ite	ne
 800380e:	2500      	movne	r5, #0
 8003810:	2501      	moveq	r5, #1
 8003812:	f506 6600 	add.w	r6, r6, #2048	; 0x800
 8003816:	42b0      	cmp	r0, r6
 8003818:	d000      	beq.n	800381c <TIM_Base_SetConfig+0x48>
 800381a:	b11d      	cbz	r5, 8003824 <TIM_Base_SetConfig+0x50>
  {
    /* Select the Counter Mode */
    tmpcr1 &= ~(TIM_CR1_DIR | TIM_CR1_CMS);
 800381c:	f023 0370 	bic.w	r3, r3, #112	; 0x70
    tmpcr1 |= Structure->CounterMode;
 8003820:	684d      	ldr	r5, [r1, #4]
 8003822:	432b      	orrs	r3, r5
  }

  if (IS_TIM_CLOCK_DIVISION_INSTANCE(TIMx))
 8003824:	2a00      	cmp	r2, #0
 8003826:	d133      	bne.n	8003890 <TIM_Base_SetConfig+0xbc>
 8003828:	4a27      	ldr	r2, [pc, #156]	; (80038c8 <TIM_Base_SetConfig+0xf4>)
 800382a:	4290      	cmp	r0, r2
 800382c:	bf14      	ite	ne
 800382e:	2200      	movne	r2, #0
 8003830:	2201      	moveq	r2, #1
 8003832:	4d26      	ldr	r5, [pc, #152]	; (80038cc <TIM_Base_SetConfig+0xf8>)
 8003834:	42a8      	cmp	r0, r5
 8003836:	d02b      	beq.n	8003890 <TIM_Base_SetConfig+0xbc>
 8003838:	bb52      	cbnz	r2, 8003890 <TIM_Base_SetConfig+0xbc>
 800383a:	f102 4280 	add.w	r2, r2, #1073741824	; 0x40000000
 800383e:	f502 3282 	add.w	r2, r2, #66560	; 0x10400
 8003842:	4290      	cmp	r0, r2
 8003844:	bf14      	ite	ne
 8003846:	2200      	movne	r2, #0
 8003848:	2201      	moveq	r2, #1
 800384a:	f505 6500 	add.w	r5, r5, #2048	; 0x800
 800384e:	42a8      	cmp	r0, r5
 8003850:	d01e      	beq.n	8003890 <TIM_Base_SetConfig+0xbc>
 8003852:	b9ea      	cbnz	r2, 8003890 <TIM_Base_SetConfig+0xbc>
 8003854:	4a1e      	ldr	r2, [pc, #120]	; (80038d0 <TIM_Base_SetConfig+0xfc>)
 8003856:	4290      	cmp	r0, r2
 8003858:	bf14      	ite	ne
 800385a:	2200      	movne	r2, #0
 800385c:	2201      	moveq	r2, #1
 800385e:	f505 359a 	add.w	r5, r5, #78848	; 0x13400
 8003862:	42a8      	cmp	r0, r5
 8003864:	d014      	beq.n	8003890 <TIM_Base_SetConfig+0xbc>
 8003866:	b99a      	cbnz	r2, 8003890 <TIM_Base_SetConfig+0xbc>
 8003868:	4a1a      	ldr	r2, [pc, #104]	; (80038d4 <TIM_Base_SetConfig+0x100>)
 800386a:	4290      	cmp	r0, r2
 800386c:	bf14      	ite	ne
 800386e:	2200      	movne	r2, #0
 8003870:	2201      	moveq	r2, #1
 8003872:	f505 6500 	add.w	r5, r5, #2048	; 0x800
 8003876:	42a8      	cmp	r0, r5
 8003878:	d00a      	beq.n	8003890 <TIM_Base_SetConfig+0xbc>
 800387a:	b94a      	cbnz	r2, 8003890 <TIM_Base_SetConfig+0xbc>
 800387c:	4a16      	ldr	r2, [pc, #88]	; (80038d8 <TIM_Base_SetConfig+0x104>)
 800387e:	4290      	cmp	r0, r2
 8003880:	bf14      	ite	ne
 8003882:	2200      	movne	r2, #0
 8003884:	2201      	moveq	r2, #1
 8003886:	f5a5 3596 	sub.w	r5, r5, #76800	; 0x12c00
 800388a:	42a8      	cmp	r0, r5
 800388c:	d000      	beq.n	8003890 <TIM_Base_SetConfig+0xbc>
 800388e:	b11a      	cbz	r2, 8003898 <TIM_Base_SetConfig+0xc4>
  {
    /* Set the clock division */
    tmpcr1 &= ~TIM_CR1_CKD;
 8003890:	f423 7340 	bic.w	r3, r3, #768	; 0x300
    tmpcr1 |= (uint32_t)Structure->ClockDivision;
 8003894:	68ca      	ldr	r2, [r1, #12]
 8003896:	4313      	orrs	r3, r2
  }

  /* Set the auto-reload preload */
  MODIFY_REG(tmpcr1, TIM_CR1_ARPE, Structure->AutoReloadPreload);
 8003898:	f023 0380 	bic.w	r3, r3, #128	; 0x80
 800389c:	694a      	ldr	r2, [r1, #20]
 800389e:	4313      	orrs	r3, r2

  TIMx->CR1 = tmpcr1;
 80038a0:	6003      	str	r3, [r0, #0]

  /* Set the Autoreload value */
  TIMx->ARR = (uint32_t)Structure->Period ;
 80038a2:	688a      	ldr	r2, [r1, #8]
 80038a4:	62c2      	str	r2, [r0, #44]	; 0x2c

  /* Set the Prescaler value */
  TIMx->PSC = Structure->Prescaler;
 80038a6:	680a      	ldr	r2, [r1, #0]
 80038a8:	6282      	str	r2, [r0, #40]	; 0x28

  if (IS_TIM_REPETITION_COUNTER_INSTANCE(TIMx))
 80038aa:	4b0c      	ldr	r3, [pc, #48]	; (80038dc <TIM_Base_SetConfig+0x108>)
 80038ac:	4298      	cmp	r0, r3
 80038ae:	bf14      	ite	ne
 80038b0:	4623      	movne	r3, r4
 80038b2:	f044 0301 	orreq.w	r3, r4, #1
 80038b6:	b10b      	cbz	r3, 80038bc <TIM_Base_SetConfig+0xe8>
  {
    /* Set the Repetition Counter value */
    TIMx->RCR = Structure->RepetitionCounter;
 80038b8:	690b      	ldr	r3, [r1, #16]
 80038ba:	6303      	str	r3, [r0, #48]	; 0x30
  }

  /* Generate an update event to reload the Prescaler
     and the repetition counter (only for advanced timer) value immediately */
  TIMx->EGR = TIM_EGR_UG;
 80038bc:	2301      	movs	r3, #1
 80038be:	6143      	str	r3, [r0, #20]
}
 80038c0:	bc70      	pop	{r4, r5, r6}
 80038c2:	4770      	bx	lr
 80038c4:	40010000 	.word	0x40010000
 80038c8:	40000800 	.word	0x40000800
 80038cc:	40000400 	.word	0x40000400
 80038d0:	40014400 	.word	0x40014400
 80038d4:	40001800 	.word	0x40001800
 80038d8:	40002000 	.word	0x40002000
 80038dc:	40010400 	.word	0x40010400

080038e0 <HAL_TIM_Base_Init>:
  if (htim == NULL)
 80038e0:	b358      	cbz	r0, 800393a <HAL_TIM_Base_Init+0x5a>
{
 80038e2:	b510      	push	{r4, lr}
 80038e4:	4604      	mov	r4, r0
  if (htim->State == HAL_TIM_STATE_RESET)
 80038e6:	f890 303d 	ldrb.w	r3, [r0, #61]	; 0x3d
 80038ea:	b30b      	cbz	r3, 8003930 <HAL_TIM_Base_Init+0x50>
  htim->State = HAL_TIM_STATE_BUSY;
 80038ec:	2302      	movs	r3, #2
 80038ee:	f884 303d 	strb.w	r3, [r4, #61]	; 0x3d
  TIM_Base_SetConfig(htim->Instance, &htim->Init);
 80038f2:	1d21      	adds	r1, r4, #4
 80038f4:	6820      	ldr	r0, [r4, #0]
 80038f6:	f7ff ff6d 	bl	80037d4 <TIM_Base_SetConfig>
  htim->DMABurstState = HAL_DMA_BURST_STATE_READY;
 80038fa:	2301      	movs	r3, #1
 80038fc:	f884 3048 	strb.w	r3, [r4, #72]	; 0x48
  TIM_CHANNEL_STATE_SET_ALL(htim, HAL_TIM_CHANNEL_STATE_READY);
 8003900:	f884 303e 	strb.w	r3, [r4, #62]	; 0x3e
 8003904:	f884 303f 	strb.w	r3, [r4, #63]	; 0x3f
 8003908:	f884 3040 	strb.w	r3, [r4, #64]	; 0x40
 800390c:	f884 3041 	strb.w	r3, [r4, #65]	; 0x41
 8003910:	f884 3042 	strb.w	r3, [r4, #66]	; 0x42
 8003914:	f884 3043 	strb.w	r3, [r4, #67]	; 0x43
  TIM_CHANNEL_N_STATE_SET_ALL(htim, HAL_TIM_CHANNEL_STATE_READY);
 8003918:	f884 3044 	strb.w	r3, [r4, #68]	; 0x44
 800391c:	f884 3045 	strb.w	r3, [r4, #69]	; 0x45
 8003920:	f884 3046 	strb.w	r3, [r4, #70]	; 0x46
 8003924:	f884 3047 	strb.w	r3, [r4, #71]	; 0x47
  htim->State = HAL_TIM_STATE_READY;
 8003928:	f884 303d 	strb.w	r3, [r4, #61]	; 0x3d
  return HAL_OK;
 800392c:	2000      	movs	r0, #0
}
 800392e:	bd10      	pop	{r4, pc}
    htim->Lock = HAL_UNLOCKED;
 8003930:	f880 303c 	strb.w	r3, [r0, #60]	; 0x3c
    HAL_TIM_Base_MspInit(htim);
 8003934:	f7ff fe33 	bl	800359e <HAL_TIM_Base_MspInit>
 8003938:	e7d8      	b.n	80038ec <HAL_TIM_Base_Init+0xc>
    return HAL_ERROR;
 800393a:	2001      	movs	r0, #1
}
 800393c:	4770      	bx	lr

0800393e <HAL_TIMEx_CommutCallback>:
  UNUSED(htim);

  /* NOTE : This function should not be modified, when the callback is needed,
            the HAL_TIMEx_CommutCallback could be implemented in the user file
   */
}
 800393e:	4770      	bx	lr

08003940 <HAL_TIMEx_BreakCallback>:
  UNUSED(htim);

  /* NOTE : This function should not be modified, when the callback is needed,
            the HAL_TIMEx_BreakCallback could be implemented in the user file
   */
}
 8003940:	4770      	bx	lr

08003942 <HAL_TIMEx_Break2Callback>:
  UNUSED(htim);

  /* NOTE : This function Should not be modified, when the callback is needed,
            the HAL_TIMEx_Break2Callback could be implemented in the user file
   */
}
 8003942:	4770      	bx	lr

08003944 <FMC_SDRAM_Init>:
  * @param  Device Pointer to SDRAM device instance
  * @param  Init Pointer to SDRAM Initialization structure   
  * @retval HAL status
  */
HAL_StatusTypeDef FMC_SDRAM_Init(FMC_SDRAM_TypeDef *Device, FMC_SDRAM_InitTypeDef *Init)
{
 8003944:	b430      	push	{r4, r5}
  assert_param(IS_FMC_SDCLOCK_PERIOD(Init->SDClockPeriod));
  assert_param(IS_FMC_READ_BURST(Init->ReadBurst));
  assert_param(IS_FMC_READPIPE_DELAY(Init->ReadPipeDelay));   

  /* Set SDRAM bank configuration parameters */
  if (Init->SDBank != FMC_SDRAM_BANK2) 
 8003946:	680b      	ldr	r3, [r1, #0]
 8003948:	2b01      	cmp	r3, #1
 800394a:	d018      	beq.n	800397e <FMC_SDRAM_Init+0x3a>
  {
    tmpr1 = Device->SDCR[FMC_SDRAM_BANK1];
 800394c:	6803      	ldr	r3, [r0, #0]
    
    /* Clear NC, NR, MWID, NB, CAS, WP, SDCLK, RBURST, and RPIPE bits */
    tmpr1 &= ((uint32_t)~(FMC_SDCR1_NC  | FMC_SDCR1_NR | FMC_SDCR1_MWID | \
 800394e:	4a19      	ldr	r2, [pc, #100]	; (80039b4 <FMC_SDRAM_Init+0x70>)
 8003950:	401a      	ands	r2, r3
                          FMC_SDCR1_NB  | FMC_SDCR1_CAS | FMC_SDCR1_WP   | \
                          FMC_SDCR1_SDCLK | FMC_SDCR1_RBURST | FMC_SDCR1_RPIPE));

    tmpr1 |= (uint32_t)(Init->ColumnBitsNumber   |\
 8003952:	684b      	ldr	r3, [r1, #4]
                        Init->RowBitsNumber      |\
 8003954:	688c      	ldr	r4, [r1, #8]
    tmpr1 |= (uint32_t)(Init->ColumnBitsNumber   |\
 8003956:	4323      	orrs	r3, r4
                        Init->MemoryDataWidth    |\
 8003958:	68cc      	ldr	r4, [r1, #12]
                        Init->RowBitsNumber      |\
 800395a:	4323      	orrs	r3, r4
                        Init->InternalBankNumber |\
 800395c:	690c      	ldr	r4, [r1, #16]
                        Init->MemoryDataWidth    |\
 800395e:	4323      	orrs	r3, r4
                        Init->CASLatency         |\
 8003960:	694c      	ldr	r4, [r1, #20]
                        Init->InternalBankNumber |\
 8003962:	4323      	orrs	r3, r4
                        Init->WriteProtection    |\
 8003964:	698c      	ldr	r4, [r1, #24]
                        Init->CASLatency         |\
 8003966:	4323      	orrs	r3, r4
                        Init->SDClockPeriod      |\
 8003968:	69cc      	ldr	r4, [r1, #28]
                        Init->WriteProtection    |\
 800396a:	4323      	orrs	r3, r4
                        Init->ReadBurst          |\
 800396c:	6a0c      	ldr	r4, [r1, #32]
                        Init->SDClockPeriod      |\
 800396e:	4323      	orrs	r3, r4
                        Init->ReadPipeDelay
 8003970:	6a49      	ldr	r1, [r1, #36]	; 0x24
                        Init->ReadBurst          |\
 8003972:	430b      	orrs	r3, r1
    tmpr1 |= (uint32_t)(Init->ColumnBitsNumber   |\
 8003974:	4313      	orrs	r3, r2
                        );                                      
    Device->SDCR[FMC_SDRAM_BANK1] = tmpr1;
 8003976:	6003      	str	r3, [r0, #0]
    Device->SDCR[FMC_SDRAM_BANK1] = tmpr1;
    Device->SDCR[FMC_SDRAM_BANK2] = tmpr2;
  }
  
  return HAL_OK;
}
 8003978:	2000      	movs	r0, #0
 800397a:	bc30      	pop	{r4, r5}
 800397c:	4770      	bx	lr
    tmpr1 = Device->SDCR[FMC_SDRAM_BANK1];
 800397e:	6804      	ldr	r4, [r0, #0]
    tmpr1 &= ((uint32_t)~(FMC_SDCR1_SDCLK | FMC_SDCR1_RBURST | FMC_SDCR1_RPIPE));
 8003980:	f424 44f8 	bic.w	r4, r4, #31744	; 0x7c00
    tmpr1 |= (uint32_t)(Init->SDClockPeriod      |\
 8003984:	69cb      	ldr	r3, [r1, #28]
                        Init->ReadBurst          |\
 8003986:	6a0a      	ldr	r2, [r1, #32]
    tmpr1 |= (uint32_t)(Init->SDClockPeriod      |\
 8003988:	431a      	orrs	r2, r3
                        Init->ReadPipeDelay);
 800398a:	6a4b      	ldr	r3, [r1, #36]	; 0x24
                        Init->ReadBurst          |\
 800398c:	431a      	orrs	r2, r3
    tmpr1 |= (uint32_t)(Init->SDClockPeriod      |\
 800398e:	4322      	orrs	r2, r4
    tmpr2 = Device->SDCR[FMC_SDRAM_BANK2];
 8003990:	6843      	ldr	r3, [r0, #4]
    tmpr2 &= ((uint32_t)~(FMC_SDCR1_NC  | FMC_SDCR1_NR | FMC_SDCR1_MWID | \
 8003992:	4c08      	ldr	r4, [pc, #32]	; (80039b4 <FMC_SDRAM_Init+0x70>)
 8003994:	401c      	ands	r4, r3
    tmpr2 |= (uint32_t)(Init->ColumnBitsNumber   |\
 8003996:	684b      	ldr	r3, [r1, #4]
                       Init->RowBitsNumber       |\
 8003998:	688d      	ldr	r5, [r1, #8]
    tmpr2 |= (uint32_t)(Init->ColumnBitsNumber   |\
 800399a:	432b      	orrs	r3, r5
                       Init->MemoryDataWidth     |\
 800399c:	68cd      	ldr	r5, [r1, #12]
                       Init->RowBitsNumber       |\
 800399e:	432b      	orrs	r3, r5
                       Init->InternalBankNumber  |\
 80039a0:	690d      	ldr	r5, [r1, #16]
                       Init->MemoryDataWidth     |\
 80039a2:	432b      	orrs	r3, r5
                       Init->CASLatency          |\
 80039a4:	694d      	ldr	r5, [r1, #20]
                       Init->InternalBankNumber  |\
 80039a6:	432b      	orrs	r3, r5
                       Init->WriteProtection);
 80039a8:	6989      	ldr	r1, [r1, #24]
                       Init->CASLatency          |\
 80039aa:	430b      	orrs	r3, r1
    tmpr2 |= (uint32_t)(Init->ColumnBitsNumber   |\
 80039ac:	4323      	orrs	r3, r4
    Device->SDCR[FMC_SDRAM_BANK1] = tmpr1;
 80039ae:	6002      	str	r2, [r0, #0]
    Device->SDCR[FMC_SDRAM_BANK2] = tmpr2;
 80039b0:	6043      	str	r3, [r0, #4]
 80039b2:	e7e1      	b.n	8003978 <FMC_SDRAM_Init+0x34>
 80039b4:	ffff8000 	.word	0xffff8000

080039b8 <FMC_SDRAM_Timing_Init>:
  * @param  Timing Pointer to SDRAM Timing structure
  * @param  Bank SDRAM bank number   
  * @retval HAL status
  */
HAL_StatusTypeDef FMC_SDRAM_Timing_Init(FMC_SDRAM_TypeDef *Device, FMC_SDRAM_TimingTypeDef *Timing, uint32_t Bank)
{
 80039b8:	b430      	push	{r4, r5}
  assert_param(IS_FMC_RP_DELAY(Timing->RPDelay));
  assert_param(IS_FMC_RCD_DELAY(Timing->RCDDelay));
  assert_param(IS_FMC_SDRAM_BANK(Bank));
  
  /* Set SDRAM device timing parameters */ 
  if (Bank != FMC_SDRAM_BANK2) 
 80039ba:	2a01      	cmp	r2, #1
 80039bc:	d021      	beq.n	8003a02 <FMC_SDRAM_Timing_Init+0x4a>
  {
    tmpr1 = Device->SDTR[FMC_SDRAM_BANK1];
 80039be:	6882      	ldr	r2, [r0, #8]
    
    /* Clear TMRD, TXSR, TRAS, TRC, TWR, TRP and TRCD bits */
    tmpr1 &= ((uint32_t)~(FMC_SDTR1_TMRD  | FMC_SDTR1_TXSR | FMC_SDTR1_TRAS | \
 80039c0:	f002 4270 	and.w	r2, r2, #4026531840	; 0xf0000000
                          FMC_SDTR1_TRC  | FMC_SDTR1_TWR | FMC_SDTR1_TRP | \
                          FMC_SDTR1_TRCD));
    
    tmpr1 |= (uint32_t)(((Timing->LoadToActiveDelay)-1)           |\
 80039c4:	680b      	ldr	r3, [r1, #0]
 80039c6:	3b01      	subs	r3, #1
                       (((Timing->ExitSelfRefreshDelay)-1) << 4) |\
 80039c8:	684c      	ldr	r4, [r1, #4]
 80039ca:	3c01      	subs	r4, #1
    tmpr1 |= (uint32_t)(((Timing->LoadToActiveDelay)-1)           |\
 80039cc:	ea43 1304 	orr.w	r3, r3, r4, lsl #4
                       (((Timing->SelfRefreshTime)-1) << 8)      |\
 80039d0:	688c      	ldr	r4, [r1, #8]
 80039d2:	3c01      	subs	r4, #1
                       (((Timing->ExitSelfRefreshDelay)-1) << 4) |\
 80039d4:	ea43 2304 	orr.w	r3, r3, r4, lsl #8
                       (((Timing->RowCycleDelay)-1) << 12)       |\
 80039d8:	68cc      	ldr	r4, [r1, #12]
 80039da:	3c01      	subs	r4, #1
                       (((Timing->SelfRefreshTime)-1) << 8)      |\
 80039dc:	ea43 3304 	orr.w	r3, r3, r4, lsl #12
                       (((Timing->WriteRecoveryTime)-1) <<16)    |\
 80039e0:	690c      	ldr	r4, [r1, #16]
 80039e2:	3c01      	subs	r4, #1
                       (((Timing->RowCycleDelay)-1) << 12)       |\
 80039e4:	ea43 4304 	orr.w	r3, r3, r4, lsl #16
                       (((Timing->RPDelay)-1) << 20)             |\
 80039e8:	694c      	ldr	r4, [r1, #20]
 80039ea:	3c01      	subs	r4, #1
                       (((Timing->WriteRecoveryTime)-1) <<16)    |\
 80039ec:	ea43 5304 	orr.w	r3, r3, r4, lsl #20
                       (((Timing->RCDDelay)-1) << 24));
 80039f0:	6989      	ldr	r1, [r1, #24]
 80039f2:	3901      	subs	r1, #1
    tmpr1 |= (uint32_t)(((Timing->LoadToActiveDelay)-1)           |\
 80039f4:	ea43 6301 	orr.w	r3, r3, r1, lsl #24
 80039f8:	4313      	orrs	r3, r2
    Device->SDTR[FMC_SDRAM_BANK1] = tmpr1;
 80039fa:	6083      	str	r3, [r0, #8]
    Device->SDTR[FMC_SDRAM_BANK1] = tmpr1;
    Device->SDTR[FMC_SDRAM_BANK2] = tmpr2;
  }
  
  return HAL_OK;
}
 80039fc:	2000      	movs	r0, #0
 80039fe:	bc30      	pop	{r4, r5}
 8003a00:	4770      	bx	lr
    tmpr1 = Device->SDTR[FMC_SDRAM_BANK1];
 8003a02:	6883      	ldr	r3, [r0, #8]
    tmpr1 &= ((uint32_t)~(FMC_SDTR1_TRC | FMC_SDTR1_TRP));
 8003a04:	4c11      	ldr	r4, [pc, #68]	; (8003a4c <FMC_SDRAM_Timing_Init+0x94>)
 8003a06:	401c      	ands	r4, r3
    tmpr1 |= (uint32_t)((((Timing->RowCycleDelay)-1) << 12)       |\
 8003a08:	68ca      	ldr	r2, [r1, #12]
 8003a0a:	1e55      	subs	r5, r2, #1
                        (((Timing->RPDelay)-1) << 20)); 
 8003a0c:	694b      	ldr	r3, [r1, #20]
 8003a0e:	1e5a      	subs	r2, r3, #1
 8003a10:	0512      	lsls	r2, r2, #20
    tmpr1 |= (uint32_t)((((Timing->RowCycleDelay)-1) << 12)       |\
 8003a12:	ea42 3205 	orr.w	r2, r2, r5, lsl #12
 8003a16:	4322      	orrs	r2, r4
    tmpr2 = Device->SDTR[FMC_SDRAM_BANK2];
 8003a18:	68c4      	ldr	r4, [r0, #12]
    tmpr2 &= ((uint32_t)~(FMC_SDTR1_TMRD  | FMC_SDTR1_TXSR | FMC_SDTR1_TRAS | \
 8003a1a:	f004 4470 	and.w	r4, r4, #4026531840	; 0xf0000000
    tmpr2 |= (uint32_t)(((Timing->LoadToActiveDelay)-1)           |\
 8003a1e:	680b      	ldr	r3, [r1, #0]
 8003a20:	3b01      	subs	r3, #1
                       (((Timing->ExitSelfRefreshDelay)-1) << 4)  |\
 8003a22:	684d      	ldr	r5, [r1, #4]
 8003a24:	3d01      	subs	r5, #1
    tmpr2 |= (uint32_t)(((Timing->LoadToActiveDelay)-1)           |\
 8003a26:	ea43 1305 	orr.w	r3, r3, r5, lsl #4
                       (((Timing->SelfRefreshTime)-1) << 8)       |\
 8003a2a:	688d      	ldr	r5, [r1, #8]
 8003a2c:	3d01      	subs	r5, #1
                       (((Timing->ExitSelfRefreshDelay)-1) << 4)  |\
 8003a2e:	ea43 2305 	orr.w	r3, r3, r5, lsl #8
                       (((Timing->WriteRecoveryTime)-1) <<16)     |\
 8003a32:	690d      	ldr	r5, [r1, #16]
 8003a34:	3d01      	subs	r5, #1
                       (((Timing->SelfRefreshTime)-1) << 8)       |\
 8003a36:	ea43 4305 	orr.w	r3, r3, r5, lsl #16
                       (((Timing->RCDDelay)-1) << 24));   
 8003a3a:	6989      	ldr	r1, [r1, #24]
 8003a3c:	3901      	subs	r1, #1
    tmpr2 |= (uint32_t)(((Timing->LoadToActiveDelay)-1)           |\
 8003a3e:	ea43 6301 	orr.w	r3, r3, r1, lsl #24
 8003a42:	4323      	orrs	r3, r4
    Device->SDTR[FMC_SDRAM_BANK1] = tmpr1;
 8003a44:	6082      	str	r2, [r0, #8]
    Device->SDTR[FMC_SDRAM_BANK2] = tmpr2;
 8003a46:	60c3      	str	r3, [r0, #12]
 8003a48:	e7d8      	b.n	80039fc <FMC_SDRAM_Timing_Init+0x44>
 8003a4a:	bf00      	nop
 8003a4c:	ff0f0fff 	.word	0xff0f0fff

08003a50 <__libc_init_array>:
 8003a50:	b570      	push	{r4, r5, r6, lr}
 8003a52:	4e0d      	ldr	r6, [pc, #52]	; (8003a88 <__libc_init_array+0x38>)
 8003a54:	4c0d      	ldr	r4, [pc, #52]	; (8003a8c <__libc_init_array+0x3c>)
 8003a56:	1ba4      	subs	r4, r4, r6
 8003a58:	10a4      	asrs	r4, r4, #2
 8003a5a:	2500      	movs	r5, #0
 8003a5c:	42a5      	cmp	r5, r4
 8003a5e:	d109      	bne.n	8003a74 <__libc_init_array+0x24>
 8003a60:	4e0b      	ldr	r6, [pc, #44]	; (8003a90 <__libc_init_array+0x40>)
 8003a62:	4c0c      	ldr	r4, [pc, #48]	; (8003a94 <__libc_init_array+0x44>)
 8003a64:	f000 f820 	bl	8003aa8 <_init>
 8003a68:	1ba4      	subs	r4, r4, r6
 8003a6a:	10a4      	asrs	r4, r4, #2
 8003a6c:	2500      	movs	r5, #0
 8003a6e:	42a5      	cmp	r5, r4
 8003a70:	d105      	bne.n	8003a7e <__libc_init_array+0x2e>
 8003a72:	bd70      	pop	{r4, r5, r6, pc}
 8003a74:	f856 3025 	ldr.w	r3, [r6, r5, lsl #2]
 8003a78:	4798      	blx	r3
 8003a7a:	3501      	adds	r5, #1
 8003a7c:	e7ee      	b.n	8003a5c <__libc_init_array+0xc>
 8003a7e:	f856 3025 	ldr.w	r3, [r6, r5, lsl #2]
 8003a82:	4798      	blx	r3
 8003a84:	3501      	adds	r5, #1
 8003a86:	e7f2      	b.n	8003a6e <__libc_init_array+0x1e>
 8003a88:	08003ae0 	.word	0x08003ae0
 8003a8c:	08003ae0 	.word	0x08003ae0
 8003a90:	08003ae0 	.word	0x08003ae0
 8003a94:	08003ae4 	.word	0x08003ae4

08003a98 <memset>:
 8003a98:	4402      	add	r2, r0
 8003a9a:	4603      	mov	r3, r0
 8003a9c:	4293      	cmp	r3, r2
 8003a9e:	d100      	bne.n	8003aa2 <memset+0xa>
 8003aa0:	4770      	bx	lr
 8003aa2:	f803 1b01 	strb.w	r1, [r3], #1
 8003aa6:	e7f9      	b.n	8003a9c <memset+0x4>

08003aa8 <_init>:
 8003aa8:	b5f8      	push	{r3, r4, r5, r6, r7, lr}
 8003aaa:	bf00      	nop
 8003aac:	bcf8      	pop	{r3, r4, r5, r6, r7}
 8003aae:	bc08      	pop	{r3}
 8003ab0:	469e      	mov	lr, r3
 8003ab2:	4770      	bx	lr

08003ab4 <_fini>:
 8003ab4:	b5f8      	push	{r3, r4, r5, r6, r7, lr}
 8003ab6:	bf00      	nop
 8003ab8:	bcf8      	pop	{r3, r4, r5, r6, r7}
 8003aba:	bc08      	pop	{r3}
 8003abc:	469e      	mov	lr, r3
 8003abe:	4770      	bx	lr
